Archive member included to satisfy reference by file (symbol)

d:/gcc-arm-none-eabi/bin/../lib/gcc/arm-none-eabi/4.9.3/thumb\libgcc.a(_arm_addsubsf3.o)
                              Src/StringsConv.o (__aeabi_fsub)
d:/gcc-arm-none-eabi/bin/../lib/gcc/arm-none-eabi/4.9.3/thumb\libgcc.a(_arm_muldivsf3.o)
                              Src/StringsConv.o (__aeabi_fmul)
d:/gcc-arm-none-eabi/bin/../lib/gcc/arm-none-eabi/4.9.3/thumb\libgcc.a(_arm_fixunssfsi.o)
                              Src/StringsConv.o (__aeabi_f2uiz)
d:/gcc-arm-none-eabi/bin/../lib/gcc/arm-none-eabi/4.9.3/../../../../arm-none-eabi/lib/thumb\libc.a(lib_a-exit.o)
                              d:/gcc-arm-none-eabi/bin/../lib/gcc/arm-none-eabi/4.9.3/../../../../arm-none-eabi/lib/thumb/crt0.o (exit)
d:/gcc-arm-none-eabi/bin/../lib/gcc/arm-none-eabi/4.9.3/../../../../arm-none-eabi/lib/thumb\libc.a(lib_a-impure.o)
                              d:/gcc-arm-none-eabi/bin/../lib/gcc/arm-none-eabi/4.9.3/../../../../arm-none-eabi/lib/thumb\libc.a(lib_a-exit.o) (_global_impure_ptr)
d:/gcc-arm-none-eabi/bin/../lib/gcc/arm-none-eabi/4.9.3/../../../../arm-none-eabi/lib/thumb\libc.a(lib_a-init.o)
                              d:/gcc-arm-none-eabi/bin/../lib/gcc/arm-none-eabi/4.9.3/../../../../arm-none-eabi/lib/thumb/crt0.o (__libc_init_array)
d:/gcc-arm-none-eabi/bin/../lib/gcc/arm-none-eabi/4.9.3/../../../../arm-none-eabi/lib/thumb\libc.a(lib_a-memcmp.o)
                              FreeRTOS_Source/tasks.o (memcmp)
d:/gcc-arm-none-eabi/bin/../lib/gcc/arm-none-eabi/4.9.3/../../../../arm-none-eabi/lib/thumb\libc.a(lib_a-memcpy.o)
                              FreeRTOS_Source/queue.o (memcpy)
d:/gcc-arm-none-eabi/bin/../lib/gcc/arm-none-eabi/4.9.3/../../../../arm-none-eabi/lib/thumb\libc.a(lib_a-memset.o)
                              d:/gcc-arm-none-eabi/bin/../lib/gcc/arm-none-eabi/4.9.3/../../../../arm-none-eabi/lib/thumb/crt0.o (memset)
d:/gcc-arm-none-eabi/bin/../lib/gcc/arm-none-eabi/4.9.3/../../../../arm-none-eabi/lib/thumb\libc.a(lib_a-sprintf.o)
                              FreeRTOS_Source/tasks.o (sprintf)
d:/gcc-arm-none-eabi/bin/../lib/gcc/arm-none-eabi/4.9.3/../../../../arm-none-eabi/lib/thumb\libc.a(lib_a-strcpy.o)
                              FreeRTOS_Source/tasks.o (strcpy)
d:/gcc-arm-none-eabi/bin/../lib/gcc/arm-none-eabi/4.9.3/../../../../arm-none-eabi/lib/thumb\libc.a(lib_a-strlen.o)
                              FreeRTOS_Source/tasks.o (strlen)
d:/gcc-arm-none-eabi/bin/../lib/gcc/arm-none-eabi/4.9.3/../../../../arm-none-eabi/lib/thumb\libc.a(lib_a-svfprintf.o)
                              d:/gcc-arm-none-eabi/bin/../lib/gcc/arm-none-eabi/4.9.3/../../../../arm-none-eabi/lib/thumb\libc.a(lib_a-sprintf.o) (_svfprintf_r)
d:/gcc-arm-none-eabi/bin/../lib/gcc/arm-none-eabi/4.9.3/../../../../arm-none-eabi/lib/thumb\libc.a(lib_a-__call_atexit.o)
                              d:/gcc-arm-none-eabi/bin/../lib/gcc/arm-none-eabi/4.9.3/../../../../arm-none-eabi/lib/thumb\libc.a(lib_a-exit.o) (__call_exitprocs)
d:/gcc-arm-none-eabi/bin/../lib/gcc/arm-none-eabi/4.9.3/../../../../arm-none-eabi/lib/thumb\libc.a(lib_a-dtoa.o)
                              d:/gcc-arm-none-eabi/bin/../lib/gcc/arm-none-eabi/4.9.3/../../../../arm-none-eabi/lib/thumb\libc.a(lib_a-svfprintf.o) (_dtoa_r)
d:/gcc-arm-none-eabi/bin/../lib/gcc/arm-none-eabi/4.9.3/../../../../arm-none-eabi/lib/thumb\libc.a(lib_a-freer.o)
                              d:/gcc-arm-none-eabi/bin/../lib/gcc/arm-none-eabi/4.9.3/../../../../arm-none-eabi/lib/thumb\libc.a(lib_a-svfprintf.o) (_free_r)
d:/gcc-arm-none-eabi/bin/../lib/gcc/arm-none-eabi/4.9.3/../../../../arm-none-eabi/lib/thumb\libc.a(lib_a-locale.o)
                              d:/gcc-arm-none-eabi/bin/../lib/gcc/arm-none-eabi/4.9.3/../../../../arm-none-eabi/lib/thumb\libc.a(lib_a-svfprintf.o) (_localeconv_r)
d:/gcc-arm-none-eabi/bin/../lib/gcc/arm-none-eabi/4.9.3/../../../../arm-none-eabi/lib/thumb\libc.a(lib_a-malloc.o)
                              d:/gcc-arm-none-eabi/bin/../lib/gcc/arm-none-eabi/4.9.3/../../../../arm-none-eabi/lib/thumb\libc.a(lib_a-dtoa.o) (malloc)
d:/gcc-arm-none-eabi/bin/../lib/gcc/arm-none-eabi/4.9.3/../../../../arm-none-eabi/lib/thumb\libc.a(lib_a-mallocr.o)
                              d:/gcc-arm-none-eabi/bin/../lib/gcc/arm-none-eabi/4.9.3/../../../../arm-none-eabi/lib/thumb\libc.a(lib_a-svfprintf.o) (_malloc_r)
d:/gcc-arm-none-eabi/bin/../lib/gcc/arm-none-eabi/4.9.3/../../../../arm-none-eabi/lib/thumb\libc.a(lib_a-memchr.o)
                              d:/gcc-arm-none-eabi/bin/../lib/gcc/arm-none-eabi/4.9.3/../../../../arm-none-eabi/lib/thumb\libc.a(lib_a-svfprintf.o) (memchr)
d:/gcc-arm-none-eabi/bin/../lib/gcc/arm-none-eabi/4.9.3/../../../../arm-none-eabi/lib/thumb\libc.a(lib_a-mlock.o)
                              d:/gcc-arm-none-eabi/bin/../lib/gcc/arm-none-eabi/4.9.3/../../../../arm-none-eabi/lib/thumb\libc.a(lib_a-freer.o) (__malloc_lock)
d:/gcc-arm-none-eabi/bin/../lib/gcc/arm-none-eabi/4.9.3/../../../../arm-none-eabi/lib/thumb\libc.a(lib_a-mprec.o)
                              d:/gcc-arm-none-eabi/bin/../lib/gcc/arm-none-eabi/4.9.3/../../../../arm-none-eabi/lib/thumb\libc.a(lib_a-dtoa.o) (_Balloc)
d:/gcc-arm-none-eabi/bin/../lib/gcc/arm-none-eabi/4.9.3/../../../../arm-none-eabi/lib/thumb\libc.a(lib_a-s_fpclassify.o)
                              d:/gcc-arm-none-eabi/bin/../lib/gcc/arm-none-eabi/4.9.3/../../../../arm-none-eabi/lib/thumb\libc.a(lib_a-svfprintf.o) (__fpclassifyd)
d:/gcc-arm-none-eabi/bin/../lib/gcc/arm-none-eabi/4.9.3/../../../../arm-none-eabi/lib/thumb\libc.a(lib_a-s_frexp.o)
                              d:/gcc-arm-none-eabi/bin/../lib/gcc/arm-none-eabi/4.9.3/../../../../arm-none-eabi/lib/thumb\libc.a(lib_a-svfprintf.o) (frexp)
d:/gcc-arm-none-eabi/bin/../lib/gcc/arm-none-eabi/4.9.3/../../../../arm-none-eabi/lib/thumb\libc.a(lib_a-strcmp.o)
                              d:/gcc-arm-none-eabi/bin/../lib/gcc/arm-none-eabi/4.9.3/../../../../arm-none-eabi/lib/thumb\libc.a(lib_a-locale.o) (strcmp)
d:/gcc-arm-none-eabi/bin/../lib/gcc/arm-none-eabi/4.9.3/../../../../arm-none-eabi/lib/thumb\libc.a(lib_a-strncpy.o)
                              d:/gcc-arm-none-eabi/bin/../lib/gcc/arm-none-eabi/4.9.3/../../../../arm-none-eabi/lib/thumb\libc.a(lib_a-svfprintf.o) (strncpy)
d:/gcc-arm-none-eabi/bin/../lib/gcc/arm-none-eabi/4.9.3/../../../../arm-none-eabi/lib/thumb\libc.a(lib_a-svfiprintf.o)
                              d:/gcc-arm-none-eabi/bin/../lib/gcc/arm-none-eabi/4.9.3/../../../../arm-none-eabi/lib/thumb\libc.a(lib_a-svfprintf.o) (__ssputs_r)
d:/gcc-arm-none-eabi/bin/../lib/gcc/arm-none-eabi/4.9.3/../../../../arm-none-eabi/lib/thumb\libc.a(lib_a-callocr.o)
                              d:/gcc-arm-none-eabi/bin/../lib/gcc/arm-none-eabi/4.9.3/../../../../arm-none-eabi/lib/thumb\libc.a(lib_a-mprec.o) (_calloc_r)
d:/gcc-arm-none-eabi/bin/../lib/gcc/arm-none-eabi/4.9.3/../../../../arm-none-eabi/lib/thumb\libc.a(lib_a-memmove.o)
                              d:/gcc-arm-none-eabi/bin/../lib/gcc/arm-none-eabi/4.9.3/../../../../arm-none-eabi/lib/thumb\libc.a(lib_a-svfiprintf.o) (memmove)
d:/gcc-arm-none-eabi/bin/../lib/gcc/arm-none-eabi/4.9.3/../../../../arm-none-eabi/lib/thumb\libc.a(lib_a-reallocr.o)
                              d:/gcc-arm-none-eabi/bin/../lib/gcc/arm-none-eabi/4.9.3/../../../../arm-none-eabi/lib/thumb\libc.a(lib_a-svfiprintf.o) (_realloc_r)
d:/gcc-arm-none-eabi/bin/../lib/gcc/arm-none-eabi/4.9.3/thumb\libgcc.a(_udivsi3.o)
                              d:/gcc-arm-none-eabi/bin/../lib/gcc/arm-none-eabi/4.9.3/../../../../arm-none-eabi/lib/thumb\libc.a(lib_a-dtoa.o) (__aeabi_uidiv)
d:/gcc-arm-none-eabi/bin/../lib/gcc/arm-none-eabi/4.9.3/thumb\libgcc.a(_divsi3.o)
                              d:/gcc-arm-none-eabi/bin/../lib/gcc/arm-none-eabi/4.9.3/../../../../arm-none-eabi/lib/thumb\libc.a(lib_a-svfprintf.o) (__aeabi_idiv)
d:/gcc-arm-none-eabi/bin/../lib/gcc/arm-none-eabi/4.9.3/thumb\libgcc.a(_dvmd_tls.o)
                              d:/gcc-arm-none-eabi/bin/../lib/gcc/arm-none-eabi/4.9.3/thumb\libgcc.a(_udivsi3.o) (__aeabi_idiv0)
d:/gcc-arm-none-eabi/bin/../lib/gcc/arm-none-eabi/4.9.3/thumb\libgcc.a(_arm_addsubdf3.o)
                              d:/gcc-arm-none-eabi/bin/../lib/gcc/arm-none-eabi/4.9.3/../../../../arm-none-eabi/lib/thumb\libc.a(lib_a-svfprintf.o) (__aeabi_dsub)
d:/gcc-arm-none-eabi/bin/../lib/gcc/arm-none-eabi/4.9.3/thumb\libgcc.a(_arm_muldivdf3.o)
                              d:/gcc-arm-none-eabi/bin/../lib/gcc/arm-none-eabi/4.9.3/../../../../arm-none-eabi/lib/thumb\libc.a(lib_a-svfprintf.o) (__aeabi_dmul)
d:/gcc-arm-none-eabi/bin/../lib/gcc/arm-none-eabi/4.9.3/thumb\libgcc.a(_arm_cmpdf2.o)
                              d:/gcc-arm-none-eabi/bin/../lib/gcc/arm-none-eabi/4.9.3/../../../../arm-none-eabi/lib/thumb\libc.a(lib_a-svfprintf.o) (__aeabi_dcmpeq)
d:/gcc-arm-none-eabi/bin/../lib/gcc/arm-none-eabi/4.9.3/thumb\libgcc.a(_arm_fixdfsi.o)
                              d:/gcc-arm-none-eabi/bin/../lib/gcc/arm-none-eabi/4.9.3/../../../../arm-none-eabi/lib/thumb\libc.a(lib_a-svfprintf.o) (__aeabi_d2iz)
d:/gcc-arm-none-eabi/bin/../lib/gcc/arm-none-eabi/4.9.3/thumb\libgcc.a(_aeabi_uldivmod.o)
                              d:/gcc-arm-none-eabi/bin/../lib/gcc/arm-none-eabi/4.9.3/../../../../arm-none-eabi/lib/thumb\libc.a(lib_a-svfprintf.o) (__aeabi_uldivmod)
d:/gcc-arm-none-eabi/bin/../lib/gcc/arm-none-eabi/4.9.3/thumb\libgcc.a(bpabi.o)
                              d:/gcc-arm-none-eabi/bin/../lib/gcc/arm-none-eabi/4.9.3/thumb\libgcc.a(_aeabi_uldivmod.o) (__gnu_uldivmod_helper)
d:/gcc-arm-none-eabi/bin/../lib/gcc/arm-none-eabi/4.9.3/thumb\libgcc.a(_muldi3.o)
                              d:/gcc-arm-none-eabi/bin/../lib/gcc/arm-none-eabi/4.9.3/thumb\libgcc.a(bpabi.o) (__aeabi_lmul)
d:/gcc-arm-none-eabi/bin/../lib/gcc/arm-none-eabi/4.9.3/thumb\libgcc.a(_divdi3.o)
                              d:/gcc-arm-none-eabi/bin/../lib/gcc/arm-none-eabi/4.9.3/thumb\libgcc.a(bpabi.o) (__divdi3)
d:/gcc-arm-none-eabi/bin/../lib/gcc/arm-none-eabi/4.9.3/thumb\libgcc.a(_udivdi3.o)
                              d:/gcc-arm-none-eabi/bin/../lib/gcc/arm-none-eabi/4.9.3/thumb\libgcc.a(bpabi.o) (__udivdi3)
d:/gcc-arm-none-eabi/bin/../lib/gcc/arm-none-eabi/4.9.3/thumb\libgcc.a(_clzdi2.o)
                              d:/gcc-arm-none-eabi/bin/../lib/gcc/arm-none-eabi/4.9.3/thumb\libgcc.a(_divdi3.o) (__clzdi2)
d:/gcc-arm-none-eabi/bin/../lib/gcc/arm-none-eabi/4.9.3/thumb\libgcc.a(_clzsi2.o)
                              d:/gcc-arm-none-eabi/bin/../lib/gcc/arm-none-eabi/4.9.3/thumb\libgcc.a(_clzdi2.o) (__clzsi2)

Allocating common symbols
Common symbol       size              file

xHighPriorityTask   0x4               FreeRTOS_Source/Full/QPeek.o
xMediumPriorityTask
                    0x4               FreeRTOS_Source/Full/QPeek.o
lcd_buffer          0x2a0             Src/Lcd3310.o
str_tab             0x30              Src/StringsConv.o
xHighestPriorityTask
                    0x4               FreeRTOS_Source/Full/QPeek.o
xCreatedTask        0x4               FreeRTOS_Source/Full/death.o
xSuspendedTestQueue
                    0x4               FreeRTOS_Source/Full/dynamic.o

Discarded input sections

 .text          0x00000000        0x0 d:/gcc-arm-none-eabi/bin/../lib/gcc/arm-none-eabi/4.9.3/thumb/crti.o
 .data          0x00000000        0x0 d:/gcc-arm-none-eabi/bin/../lib/gcc/arm-none-eabi/4.9.3/thumb/crti.o
 .bss           0x00000000        0x0 d:/gcc-arm-none-eabi/bin/../lib/gcc/arm-none-eabi/4.9.3/thumb/crti.o
 .data          0x00000000        0x4 d:/gcc-arm-none-eabi/bin/../lib/gcc/arm-none-eabi/4.9.3/thumb/crtbegin.o
 .text          0x00000000       0xfc d:/gcc-arm-none-eabi/bin/../lib/gcc/arm-none-eabi/4.9.3/../../../../arm-none-eabi/lib/thumb/crt0.o
 .data          0x00000000        0x0 d:/gcc-arm-none-eabi/bin/../lib/gcc/arm-none-eabi/4.9.3/../../../../arm-none-eabi/lib/thumb/crt0.o
 .bss           0x00000000        0x0 d:/gcc-arm-none-eabi/bin/../lib/gcc/arm-none-eabi/4.9.3/../../../../arm-none-eabi/lib/thumb/crt0.o
 .ARM.extab     0x00000000        0x0 d:/gcc-arm-none-eabi/bin/../lib/gcc/arm-none-eabi/4.9.3/../../../../arm-none-eabi/lib/thumb/crt0.o
 .ARM.exidx     0x00000000        0x8 d:/gcc-arm-none-eabi/bin/../lib/gcc/arm-none-eabi/4.9.3/../../../../arm-none-eabi/lib/thumb/crt0.o
 .data          0x00000000        0x0 Src/main.o
 .data          0x00000000        0x0 Src/stm32f10x_it.o
 .bss           0x00000000        0x0 Src/stm32f10x_it.o
 .text          0x00000000      0x260 Src/Stm32l_level.o
 .data          0x00000000        0x0 Src/Stm32l_level.o
 .bss           0x00000000        0x0 Src/Stm32l_level.o
 .text          0x00000000      0x44c Src/Lcd3310.o
 .data          0x00000000        0x0 Src/Lcd3310.o
 .bss           0x00000000        0x2 Src/Lcd3310.o
 .rodata        0x00000000      0x528 Src/Lcd3310.o
 COMMON         0x00000000      0x2a0 Src/Lcd3310.o
 .text          0x00000000      0x6d0 Src/StringsConv.o
 .data          0x00000000        0x0 Src/StringsConv.o
 .bss           0x00000000        0x0 Src/StringsConv.o
 COMMON         0x00000000       0x30 Src/StringsConv.o
 .data          0x00000000        0x0 Src/ParTest.o
 .bss           0x00000000        0x0 Src/ParTest.o
 .data          0x00000000        0x0 Src/timertest.o
 .text          0x00000000        0x0 FreeRTOS_Source/croutine.o
 .data          0x00000000        0x0 FreeRTOS_Source/croutine.o
 .bss           0x00000000        0x0 FreeRTOS_Source/croutine.o
 .text          0x00000000      0x42c FreeRTOS_Source/event_groups.o
 .data          0x00000000        0x0 FreeRTOS_Source/event_groups.o
 .bss           0x00000000        0x0 FreeRTOS_Source/event_groups.o
 .data          0x00000000        0x0 FreeRTOS_Source/list.o
 .bss           0x00000000        0x0 FreeRTOS_Source/list.o
 .data          0x00000000        0x0 FreeRTOS_Source/queue.o
 .bss           0x00000000        0x0 FreeRTOS_Source/queue.o
 .text          0x00000000        0x0 FreeRTOS_Source/timers.o
 .data          0x00000000        0x0 FreeRTOS_Source/timers.o
 .bss           0x00000000        0x0 FreeRTOS_Source/timers.o
 .bss           0x00000000        0x0 FreeRTOS_Source/portable/GCC/ARM_CM3/port.o
 .data          0x00000000        0x0 FreeRTOS_Source/Full/BlockQ.o
 .text          0x00000000      0x1e8 FreeRTOS_Source/Full/comtest.o
 .data          0x00000000        0x0 FreeRTOS_Source/Full/comtest.o
 .bss           0x00000000        0xc FreeRTOS_Source/Full/comtest.o
 .rodata        0x00000000       0x10 FreeRTOS_Source/Full/comtest.o
 .text          0x00000000      0x1a8 FreeRTOS_Source/Full/death.o
 .data          0x00000000        0x2 FreeRTOS_Source/Full/death.o
 .bss           0x00000000        0xc FreeRTOS_Source/Full/death.o
 .rodata        0x00000000       0x1c FreeRTOS_Source/Full/death.o
 COMMON         0x00000000        0x4 FreeRTOS_Source/Full/death.o
 .text          0x00000000      0x340 FreeRTOS_Source/Full/dynamic.o
 .data          0x00000000        0x0 FreeRTOS_Source/Full/dynamic.o
 .bss           0x00000000       0x28 FreeRTOS_Source/Full/dynamic.o
 .rodata        0x00000000       0x28 FreeRTOS_Source/Full/dynamic.o
 COMMON         0x00000000        0x4 FreeRTOS_Source/Full/dynamic.o
 .text          0x00000000      0x3fc FreeRTOS_Source/Full/events.o
 .data          0x00000000        0x4 FreeRTOS_Source/Full/events.o
 .bss           0x00000000       0x3c FreeRTOS_Source/Full/events.o
 .rodata        0x00000000       0x70 FreeRTOS_Source/Full/events.o
 .text          0x00000000       0xa4 FreeRTOS_Source/Full/flash.o
 .data          0x00000000        0x0 FreeRTOS_Source/Full/flash.o
 .bss           0x00000000        0x4 FreeRTOS_Source/Full/flash.o
 .rodata        0x00000000        0x8 FreeRTOS_Source/Full/flash.o
 .data          0x00000000        0x0 FreeRTOS_Source/Full/integer.o
 .data          0x00000000        0x0 FreeRTOS_Source/Full/PollQ.o
 .text          0x00000000       0x6c FreeRTOS_Source/Full/print.o
 .data          0x00000000        0x0 FreeRTOS_Source/Full/print.o
 .bss           0x00000000        0x4 FreeRTOS_Source/Full/print.o
 .data          0x00000000        0x0 FreeRTOS_Source/Full/semtest.o
 .data          0x00000000        0x0 FreeRTOS_Source/Full/QPeek.o
 .data          0x00000000        0x0 FreeRTOS_Source/Full/GenQTest.o
 .data          0x00000000        0x0 FreeRTOS_Source/Full/recmutex.o
 .rodata        0x00000000        0x2 FreeRTOS_Source/portable/MemMang/heap_2.o
 .data          0x00000000        0x0 Src/syscalls.o
 .text          0x00000000      0x5c0 STLibrary/src/stm32f10x_gpio.o
 .data          0x00000000        0x0 STLibrary/src/stm32f10x_gpio.o
 .bss           0x00000000        0x0 STLibrary/src/stm32f10x_gpio.o
 .data          0x00000000        0x0 STLibrary/src/stm32f10x_nvic.o
 .bss           0x00000000        0x0 STLibrary/src/stm32f10x_nvic.o
 .data          0x00000000        0x0 STLibrary/src/stm32f10x_rcc.o
 .data          0x00000000        0x0 STLibrary/src/stm32f10x_systick.o
 .bss           0x00000000        0x0 STLibrary/src/stm32f10x_systick.o
 .data          0x00000000        0x0 STLibrary/src/stm32f10x_tim.o
 .bss           0x00000000        0x0 STLibrary/src/stm32f10x_tim.o
 .data          0x00000000        0x0 STLibrary/src/cortexm3_macro.o
 .bss           0x00000000        0x0 STLibrary/src/cortexm3_macro.o
 .data          0x00000000        0x0 STLibrary/src/stm32f10x_vector.o
 .bss           0x00000000        0x0 STLibrary/src/stm32f10x_vector.o
 .text          0x00000000      0x2ac d:/gcc-arm-none-eabi/bin/../lib/gcc/arm-none-eabi/4.9.3/thumb\libgcc.a(_arm_addsubsf3.o)
 .data          0x00000000        0x0 d:/gcc-arm-none-eabi/bin/../lib/gcc/arm-none-eabi/4.9.3/thumb\libgcc.a(_arm_addsubsf3.o)
 .bss           0x00000000        0x0 d:/gcc-arm-none-eabi/bin/../lib/gcc/arm-none-eabi/4.9.3/thumb\libgcc.a(_arm_addsubsf3.o)
 .text          0x00000000      0x2f8 d:/gcc-arm-none-eabi/bin/../lib/gcc/arm-none-eabi/4.9.3/thumb\libgcc.a(_arm_muldivsf3.o)
 .data          0x00000000        0x0 d:/gcc-arm-none-eabi/bin/../lib/gcc/arm-none-eabi/4.9.3/thumb\libgcc.a(_arm_muldivsf3.o)
 .bss           0x00000000        0x0 d:/gcc-arm-none-eabi/bin/../lib/gcc/arm-none-eabi/4.9.3/thumb\libgcc.a(_arm_muldivsf3.o)
 .text          0x00000000       0x54 d:/gcc-arm-none-eabi/bin/../lib/gcc/arm-none-eabi/4.9.3/thumb\libgcc.a(_arm_fixunssfsi.o)
 .data          0x00000000        0x0 d:/gcc-arm-none-eabi/bin/../lib/gcc/arm-none-eabi/4.9.3/thumb\libgcc.a(_arm_fixunssfsi.o)
 .bss           0x00000000        0x0 d:/gcc-arm-none-eabi/bin/../lib/gcc/arm-none-eabi/4.9.3/thumb\libgcc.a(_arm_fixunssfsi.o)
 .text          0x00000000        0x0 d:/gcc-arm-none-eabi/bin/../lib/gcc/arm-none-eabi/4.9.3/../../../../arm-none-eabi/lib/thumb\libc.a(lib_a-exit.o)
 .data          0x00000000        0x0 d:/gcc-arm-none-eabi/bin/../lib/gcc/arm-none-eabi/4.9.3/../../../../arm-none-eabi/lib/thumb\libc.a(lib_a-exit.o)
 .bss           0x00000000        0x0 d:/gcc-arm-none-eabi/bin/../lib/gcc/arm-none-eabi/4.9.3/../../../../arm-none-eabi/lib/thumb\libc.a(lib_a-exit.o)
 .text.exit     0x00000000       0x28 d:/gcc-arm-none-eabi/bin/../lib/gcc/arm-none-eabi/4.9.3/../../../../arm-none-eabi/lib/thumb\libc.a(lib_a-exit.o)
 .text          0x00000000        0x0 d:/gcc-arm-none-eabi/bin/../lib/gcc/arm-none-eabi/4.9.3/../../../../arm-none-eabi/lib/thumb\libc.a(lib_a-impure.o)
 .data          0x00000000        0x0 d:/gcc-arm-none-eabi/bin/../lib/gcc/arm-none-eabi/4.9.3/../../../../arm-none-eabi/lib/thumb\libc.a(lib_a-impure.o)
 .bss           0x00000000        0x0 d:/gcc-arm-none-eabi/bin/../lib/gcc/arm-none-eabi/4.9.3/../../../../arm-none-eabi/lib/thumb\libc.a(lib_a-impure.o)
 .rodata._global_impure_ptr
                0x00000000        0x4 d:/gcc-arm-none-eabi/bin/../lib/gcc/arm-none-eabi/4.9.3/../../../../arm-none-eabi/lib/thumb\libc.a(lib_a-impure.o)
 .text          0x00000000        0x0 d:/gcc-arm-none-eabi/bin/../lib/gcc/arm-none-eabi/4.9.3/../../../../arm-none-eabi/lib/thumb\libc.a(lib_a-init.o)
 .data          0x00000000        0x0 d:/gcc-arm-none-eabi/bin/../lib/gcc/arm-none-eabi/4.9.3/../../../../arm-none-eabi/lib/thumb\libc.a(lib_a-init.o)
 .bss           0x00000000        0x0 d:/gcc-arm-none-eabi/bin/../lib/gcc/arm-none-eabi/4.9.3/../../../../arm-none-eabi/lib/thumb\libc.a(lib_a-init.o)
 .text.__libc_init_array
                0x00000000       0x58 d:/gcc-arm-none-eabi/bin/../lib/gcc/arm-none-eabi/4.9.3/../../../../arm-none-eabi/lib/thumb\libc.a(lib_a-init.o)
 .text          0x00000000        0x0 d:/gcc-arm-none-eabi/bin/../lib/gcc/arm-none-eabi/4.9.3/../../../../arm-none-eabi/lib/thumb\libc.a(lib_a-memcmp.o)
 .data          0x00000000        0x0 d:/gcc-arm-none-eabi/bin/../lib/gcc/arm-none-eabi/4.9.3/../../../../arm-none-eabi/lib/thumb\libc.a(lib_a-memcmp.o)
 .bss           0x00000000        0x0 d:/gcc-arm-none-eabi/bin/../lib/gcc/arm-none-eabi/4.9.3/../../../../arm-none-eabi/lib/thumb\libc.a(lib_a-memcmp.o)
 .text          0x00000000        0x0 d:/gcc-arm-none-eabi/bin/../lib/gcc/arm-none-eabi/4.9.3/../../../../arm-none-eabi/lib/thumb\libc.a(lib_a-memcpy.o)
 .data          0x00000000        0x0 d:/gcc-arm-none-eabi/bin/../lib/gcc/arm-none-eabi/4.9.3/../../../../arm-none-eabi/lib/thumb\libc.a(lib_a-memcpy.o)
 .bss           0x00000000        0x0 d:/gcc-arm-none-eabi/bin/../lib/gcc/arm-none-eabi/4.9.3/../../../../arm-none-eabi/lib/thumb\libc.a(lib_a-memcpy.o)
 .text          0x00000000        0x0 d:/gcc-arm-none-eabi/bin/../lib/gcc/arm-none-eabi/4.9.3/../../../../arm-none-eabi/lib/thumb\libc.a(lib_a-memset.o)
 .data          0x00000000        0x0 d:/gcc-arm-none-eabi/bin/../lib/gcc/arm-none-eabi/4.9.3/../../../../arm-none-eabi/lib/thumb\libc.a(lib_a-memset.o)
 .bss           0x00000000        0x0 d:/gcc-arm-none-eabi/bin/../lib/gcc/arm-none-eabi/4.9.3/../../../../arm-none-eabi/lib/thumb\libc.a(lib_a-memset.o)
 .text          0x00000000        0x0 d:/gcc-arm-none-eabi/bin/../lib/gcc/arm-none-eabi/4.9.3/../../../../arm-none-eabi/lib/thumb\libc.a(lib_a-sprintf.o)
 .data          0x00000000        0x0 d:/gcc-arm-none-eabi/bin/../lib/gcc/arm-none-eabi/4.9.3/../../../../arm-none-eabi/lib/thumb\libc.a(lib_a-sprintf.o)
 .bss           0x00000000        0x0 d:/gcc-arm-none-eabi/bin/../lib/gcc/arm-none-eabi/4.9.3/../../../../arm-none-eabi/lib/thumb\libc.a(lib_a-sprintf.o)
 .text._sprintf_r
                0x00000000       0x40 d:/gcc-arm-none-eabi/bin/../lib/gcc/arm-none-eabi/4.9.3/../../../../arm-none-eabi/lib/thumb\libc.a(lib_a-sprintf.o)
 .text          0x00000000        0x0 d:/gcc-arm-none-eabi/bin/../lib/gcc/arm-none-eabi/4.9.3/../../../../arm-none-eabi/lib/thumb\libc.a(lib_a-strcpy.o)
 .data          0x00000000        0x0 d:/gcc-arm-none-eabi/bin/../lib/gcc/arm-none-eabi/4.9.3/../../../../arm-none-eabi/lib/thumb\libc.a(lib_a-strcpy.o)
 .bss           0x00000000        0x0 d:/gcc-arm-none-eabi/bin/../lib/gcc/arm-none-eabi/4.9.3/../../../../arm-none-eabi/lib/thumb\libc.a(lib_a-strcpy.o)
 .text          0x00000000        0x0 d:/gcc-arm-none-eabi/bin/../lib/gcc/arm-none-eabi/4.9.3/../../../../arm-none-eabi/lib/thumb\libc.a(lib_a-strlen.o)
 .data          0x00000000        0x0 d:/gcc-arm-none-eabi/bin/../lib/gcc/arm-none-eabi/4.9.3/../../../../arm-none-eabi/lib/thumb\libc.a(lib_a-strlen.o)
 .bss           0x00000000        0x0 d:/gcc-arm-none-eabi/bin/../lib/gcc/arm-none-eabi/4.9.3/../../../../arm-none-eabi/lib/thumb\libc.a(lib_a-strlen.o)
 .text          0x00000000        0x0 d:/gcc-arm-none-eabi/bin/../lib/gcc/arm-none-eabi/4.9.3/../../../../arm-none-eabi/lib/thumb\libc.a(lib_a-svfprintf.o)
 .data          0x00000000        0x0 d:/gcc-arm-none-eabi/bin/../lib/gcc/arm-none-eabi/4.9.3/../../../../arm-none-eabi/lib/thumb\libc.a(lib_a-svfprintf.o)
 .bss           0x00000000        0x0 d:/gcc-arm-none-eabi/bin/../lib/gcc/arm-none-eabi/4.9.3/../../../../arm-none-eabi/lib/thumb\libc.a(lib_a-svfprintf.o)
 .text          0x00000000        0x0 d:/gcc-arm-none-eabi/bin/../lib/gcc/arm-none-eabi/4.9.3/../../../../arm-none-eabi/lib/thumb\libc.a(lib_a-__call_atexit.o)
 .data          0x00000000        0x0 d:/gcc-arm-none-eabi/bin/../lib/gcc/arm-none-eabi/4.9.3/../../../../arm-none-eabi/lib/thumb\libc.a(lib_a-__call_atexit.o)
 .bss           0x00000000        0x0 d:/gcc-arm-none-eabi/bin/../lib/gcc/arm-none-eabi/4.9.3/../../../../arm-none-eabi/lib/thumb\libc.a(lib_a-__call_atexit.o)
 .text.__call_exitprocs
                0x00000000      0x100 d:/gcc-arm-none-eabi/bin/../lib/gcc/arm-none-eabi/4.9.3/../../../../arm-none-eabi/lib/thumb\libc.a(lib_a-__call_atexit.o)
 .bss._global_atexit
                0x00000000        0x4 d:/gcc-arm-none-eabi/bin/../lib/gcc/arm-none-eabi/4.9.3/../../../../arm-none-eabi/lib/thumb\libc.a(lib_a-__call_atexit.o)
 .text          0x00000000        0x0 d:/gcc-arm-none-eabi/bin/../lib/gcc/arm-none-eabi/4.9.3/../../../../arm-none-eabi/lib/thumb\libc.a(lib_a-dtoa.o)
 .data          0x00000000        0x0 d:/gcc-arm-none-eabi/bin/../lib/gcc/arm-none-eabi/4.9.3/../../../../arm-none-eabi/lib/thumb\libc.a(lib_a-dtoa.o)
 .bss           0x00000000        0x0 d:/gcc-arm-none-eabi/bin/../lib/gcc/arm-none-eabi/4.9.3/../../../../arm-none-eabi/lib/thumb\libc.a(lib_a-dtoa.o)
 .text          0x00000000        0x0 d:/gcc-arm-none-eabi/bin/../lib/gcc/arm-none-eabi/4.9.3/../../../../arm-none-eabi/lib/thumb\libc.a(lib_a-freer.o)
 .data          0x00000000        0x0 d:/gcc-arm-none-eabi/bin/../lib/gcc/arm-none-eabi/4.9.3/../../../../arm-none-eabi/lib/thumb\libc.a(lib_a-freer.o)
 .bss           0x00000000        0x0 d:/gcc-arm-none-eabi/bin/../lib/gcc/arm-none-eabi/4.9.3/../../../../arm-none-eabi/lib/thumb\libc.a(lib_a-freer.o)
 .text          0x00000000        0x0 d:/gcc-arm-none-eabi/bin/../lib/gcc/arm-none-eabi/4.9.3/../../../../arm-none-eabi/lib/thumb\libc.a(lib_a-locale.o)
 .data          0x00000000        0x0 d:/gcc-arm-none-eabi/bin/../lib/gcc/arm-none-eabi/4.9.3/../../../../arm-none-eabi/lib/thumb\libc.a(lib_a-locale.o)
 .bss           0x00000000        0x0 d:/gcc-arm-none-eabi/bin/../lib/gcc/arm-none-eabi/4.9.3/../../../../arm-none-eabi/lib/thumb\libc.a(lib_a-locale.o)
 .text._setlocale_r
                0x00000000       0x48 d:/gcc-arm-none-eabi/bin/../lib/gcc/arm-none-eabi/4.9.3/../../../../arm-none-eabi/lib/thumb\libc.a(lib_a-locale.o)
 .text.__locale_charset
                0x00000000        0x8 d:/gcc-arm-none-eabi/bin/../lib/gcc/arm-none-eabi/4.9.3/../../../../arm-none-eabi/lib/thumb\libc.a(lib_a-locale.o)
 .text.__locale_mb_cur_max
                0x00000000        0xc d:/gcc-arm-none-eabi/bin/../lib/gcc/arm-none-eabi/4.9.3/../../../../arm-none-eabi/lib/thumb\libc.a(lib_a-locale.o)
 .text.__locale_msgcharset
                0x00000000        0x8 d:/gcc-arm-none-eabi/bin/../lib/gcc/arm-none-eabi/4.9.3/../../../../arm-none-eabi/lib/thumb\libc.a(lib_a-locale.o)
 .text.__locale_cjk_lang
                0x00000000        0x4 d:/gcc-arm-none-eabi/bin/../lib/gcc/arm-none-eabi/4.9.3/../../../../arm-none-eabi/lib/thumb\libc.a(lib_a-locale.o)
 .text.setlocale
                0x00000000       0x1c d:/gcc-arm-none-eabi/bin/../lib/gcc/arm-none-eabi/4.9.3/../../../../arm-none-eabi/lib/thumb\libc.a(lib_a-locale.o)
 .text.localeconv
                0x00000000        0x8 d:/gcc-arm-none-eabi/bin/../lib/gcc/arm-none-eabi/4.9.3/../../../../arm-none-eabi/lib/thumb\libc.a(lib_a-locale.o)
 .data.lc_message_charset
                0x00000000       0x20 d:/gcc-arm-none-eabi/bin/../lib/gcc/arm-none-eabi/4.9.3/../../../../arm-none-eabi/lib/thumb\libc.a(lib_a-locale.o)
 .bss._PathLocale
                0x00000000        0x4 d:/gcc-arm-none-eabi/bin/../lib/gcc/arm-none-eabi/4.9.3/../../../../arm-none-eabi/lib/thumb\libc.a(lib_a-locale.o)
 .bss.__nlocale_changed
                0x00000000        0x4 d:/gcc-arm-none-eabi/bin/../lib/gcc/arm-none-eabi/4.9.3/../../../../arm-none-eabi/lib/thumb\libc.a(lib_a-locale.o)
 .bss.__mlocale_changed
                0x00000000        0x4 d:/gcc-arm-none-eabi/bin/../lib/gcc/arm-none-eabi/4.9.3/../../../../arm-none-eabi/lib/thumb\libc.a(lib_a-locale.o)
 .data.lc_ctype_charset
                0x00000000       0x20 d:/gcc-arm-none-eabi/bin/../lib/gcc/arm-none-eabi/4.9.3/../../../../arm-none-eabi/lib/thumb\libc.a(lib_a-locale.o)
 .data.__mb_cur_max
                0x00000000        0x4 d:/gcc-arm-none-eabi/bin/../lib/gcc/arm-none-eabi/4.9.3/../../../../arm-none-eabi/lib/thumb\libc.a(lib_a-locale.o)
 .text          0x00000000        0x0 d:/gcc-arm-none-eabi/bin/../lib/gcc/arm-none-eabi/4.9.3/../../../../arm-none-eabi/lib/thumb\libc.a(lib_a-malloc.o)
 .data          0x00000000        0x0 d:/gcc-arm-none-eabi/bin/../lib/gcc/arm-none-eabi/4.9.3/../../../../arm-none-eabi/lib/thumb\libc.a(lib_a-malloc.o)
 .bss           0x00000000        0x0 d:/gcc-arm-none-eabi/bin/../lib/gcc/arm-none-eabi/4.9.3/../../../../arm-none-eabi/lib/thumb\libc.a(lib_a-malloc.o)
 .text.free     0x00000000       0x18 d:/gcc-arm-none-eabi/bin/../lib/gcc/arm-none-eabi/4.9.3/../../../../arm-none-eabi/lib/thumb\libc.a(lib_a-malloc.o)
 .text          0x00000000        0x0 d:/gcc-arm-none-eabi/bin/../lib/gcc/arm-none-eabi/4.9.3/../../../../arm-none-eabi/lib/thumb\libc.a(lib_a-mallocr.o)
 .data          0x00000000        0x0 d:/gcc-arm-none-eabi/bin/../lib/gcc/arm-none-eabi/4.9.3/../../../../arm-none-eabi/lib/thumb\libc.a(lib_a-mallocr.o)
 .bss           0x00000000        0x0 d:/gcc-arm-none-eabi/bin/../lib/gcc/arm-none-eabi/4.9.3/../../../../arm-none-eabi/lib/thumb\libc.a(lib_a-mallocr.o)
 .text          0x00000000        0x0 d:/gcc-arm-none-eabi/bin/../lib/gcc/arm-none-eabi/4.9.3/../../../../arm-none-eabi/lib/thumb\libc.a(lib_a-memchr.o)
 .data          0x00000000        0x0 d:/gcc-arm-none-eabi/bin/../lib/gcc/arm-none-eabi/4.9.3/../../../../arm-none-eabi/lib/thumb\libc.a(lib_a-memchr.o)
 .bss           0x00000000        0x0 d:/gcc-arm-none-eabi/bin/../lib/gcc/arm-none-eabi/4.9.3/../../../../arm-none-eabi/lib/thumb\libc.a(lib_a-memchr.o)
 .text          0x00000000        0x0 d:/gcc-arm-none-eabi/bin/../lib/gcc/arm-none-eabi/4.9.3/../../../../arm-none-eabi/lib/thumb\libc.a(lib_a-mlock.o)
 .data          0x00000000        0x0 d:/gcc-arm-none-eabi/bin/../lib/gcc/arm-none-eabi/4.9.3/../../../../arm-none-eabi/lib/thumb\libc.a(lib_a-mlock.o)
 .bss           0x00000000        0x0 d:/gcc-arm-none-eabi/bin/../lib/gcc/arm-none-eabi/4.9.3/../../../../arm-none-eabi/lib/thumb\libc.a(lib_a-mlock.o)
 .text          0x00000000        0x0 d:/gcc-arm-none-eabi/bin/../lib/gcc/arm-none-eabi/4.9.3/../../../../arm-none-eabi/lib/thumb\libc.a(lib_a-mprec.o)
 .data          0x00000000        0x0 d:/gcc-arm-none-eabi/bin/../lib/gcc/arm-none-eabi/4.9.3/../../../../arm-none-eabi/lib/thumb\libc.a(lib_a-mprec.o)
 .bss           0x00000000        0x0 d:/gcc-arm-none-eabi/bin/../lib/gcc/arm-none-eabi/4.9.3/../../../../arm-none-eabi/lib/thumb\libc.a(lib_a-mprec.o)
 .text.__s2b    0x00000000       0x98 d:/gcc-arm-none-eabi/bin/../lib/gcc/arm-none-eabi/4.9.3/../../../../arm-none-eabi/lib/thumb\libc.a(lib_a-mprec.o)
 .text.__ulp    0x00000000       0x4c d:/gcc-arm-none-eabi/bin/../lib/gcc/arm-none-eabi/4.9.3/../../../../arm-none-eabi/lib/thumb\libc.a(lib_a-mprec.o)
 .text.__b2d    0x00000000       0xe0 d:/gcc-arm-none-eabi/bin/../lib/gcc/arm-none-eabi/4.9.3/../../../../arm-none-eabi/lib/thumb\libc.a(lib_a-mprec.o)
 .text.__ratio  0x00000000       0x74 d:/gcc-arm-none-eabi/bin/../lib/gcc/arm-none-eabi/4.9.3/../../../../arm-none-eabi/lib/thumb\libc.a(lib_a-mprec.o)
 .text._mprec_log10
                0x00000000       0x38 d:/gcc-arm-none-eabi/bin/../lib/gcc/arm-none-eabi/4.9.3/../../../../arm-none-eabi/lib/thumb\libc.a(lib_a-mprec.o)
 .text.__copybits
                0x00000000       0x44 d:/gcc-arm-none-eabi/bin/../lib/gcc/arm-none-eabi/4.9.3/../../../../arm-none-eabi/lib/thumb\libc.a(lib_a-mprec.o)
 .text.__any_on
                0x00000000       0x64 d:/gcc-arm-none-eabi/bin/../lib/gcc/arm-none-eabi/4.9.3/../../../../arm-none-eabi/lib/thumb\libc.a(lib_a-mprec.o)
 .rodata.__mprec_tinytens
                0x00000000       0x28 d:/gcc-arm-none-eabi/bin/../lib/gcc/arm-none-eabi/4.9.3/../../../../arm-none-eabi/lib/thumb\libc.a(lib_a-mprec.o)
 .text          0x00000000        0x0 d:/gcc-arm-none-eabi/bin/../lib/gcc/arm-none-eabi/4.9.3/../../../../arm-none-eabi/lib/thumb\libc.a(lib_a-s_fpclassify.o)
 .data          0x00000000        0x0 d:/gcc-arm-none-eabi/bin/../lib/gcc/arm-none-eabi/4.9.3/../../../../arm-none-eabi/lib/thumb\libc.a(lib_a-s_fpclassify.o)
 .bss           0x00000000        0x0 d:/gcc-arm-none-eabi/bin/../lib/gcc/arm-none-eabi/4.9.3/../../../../arm-none-eabi/lib/thumb\libc.a(lib_a-s_fpclassify.o)
 .text          0x00000000        0x0 d:/gcc-arm-none-eabi/bin/../lib/gcc/arm-none-eabi/4.9.3/../../../../arm-none-eabi/lib/thumb\libc.a(lib_a-s_frexp.o)
 .data          0x00000000        0x0 d:/gcc-arm-none-eabi/bin/../lib/gcc/arm-none-eabi/4.9.3/../../../../arm-none-eabi/lib/thumb\libc.a(lib_a-s_frexp.o)
 .bss           0x00000000        0x0 d:/gcc-arm-none-eabi/bin/../lib/gcc/arm-none-eabi/4.9.3/../../../../arm-none-eabi/lib/thumb\libc.a(lib_a-s_frexp.o)
 .text          0x00000000      0x224 d:/gcc-arm-none-eabi/bin/../lib/gcc/arm-none-eabi/4.9.3/../../../../arm-none-eabi/lib/thumb\libc.a(lib_a-strcmp.o)
 .data          0x00000000        0x0 d:/gcc-arm-none-eabi/bin/../lib/gcc/arm-none-eabi/4.9.3/../../../../arm-none-eabi/lib/thumb\libc.a(lib_a-strcmp.o)
 .bss           0x00000000        0x0 d:/gcc-arm-none-eabi/bin/../lib/gcc/arm-none-eabi/4.9.3/../../../../arm-none-eabi/lib/thumb\libc.a(lib_a-strcmp.o)
 .text          0x00000000        0x0 d:/gcc-arm-none-eabi/bin/../lib/gcc/arm-none-eabi/4.9.3/../../../../arm-none-eabi/lib/thumb\libc.a(lib_a-strncpy.o)
 .data          0x00000000        0x0 d:/gcc-arm-none-eabi/bin/../lib/gcc/arm-none-eabi/4.9.3/../../../../arm-none-eabi/lib/thumb\libc.a(lib_a-strncpy.o)
 .bss           0x00000000        0x0 d:/gcc-arm-none-eabi/bin/../lib/gcc/arm-none-eabi/4.9.3/../../../../arm-none-eabi/lib/thumb\libc.a(lib_a-strncpy.o)
 .text          0x00000000        0x0 d:/gcc-arm-none-eabi/bin/../lib/gcc/arm-none-eabi/4.9.3/../../../../arm-none-eabi/lib/thumb\libc.a(lib_a-svfiprintf.o)
 .data          0x00000000        0x0 d:/gcc-arm-none-eabi/bin/../lib/gcc/arm-none-eabi/4.9.3/../../../../arm-none-eabi/lib/thumb\libc.a(lib_a-svfiprintf.o)
 .bss           0x00000000        0x0 d:/gcc-arm-none-eabi/bin/../lib/gcc/arm-none-eabi/4.9.3/../../../../arm-none-eabi/lib/thumb\libc.a(lib_a-svfiprintf.o)
 .text.__ssprint_r
                0x00000000      0x134 d:/gcc-arm-none-eabi/bin/../lib/gcc/arm-none-eabi/4.9.3/../../../../arm-none-eabi/lib/thumb\libc.a(lib_a-svfiprintf.o)
 .text._svfiprintf_r
                0x00000000      0x97c d:/gcc-arm-none-eabi/bin/../lib/gcc/arm-none-eabi/4.9.3/../../../../arm-none-eabi/lib/thumb\libc.a(lib_a-svfiprintf.o)
 .rodata._svfiprintf_r
                0x00000000      0x16c d:/gcc-arm-none-eabi/bin/../lib/gcc/arm-none-eabi/4.9.3/../../../../arm-none-eabi/lib/thumb\libc.a(lib_a-svfiprintf.o)
 .rodata.zeroes.6911
                0x00000000       0x10 d:/gcc-arm-none-eabi/bin/../lib/gcc/arm-none-eabi/4.9.3/../../../../arm-none-eabi/lib/thumb\libc.a(lib_a-svfiprintf.o)
 .rodata.blanks.6910
                0x00000000       0x10 d:/gcc-arm-none-eabi/bin/../lib/gcc/arm-none-eabi/4.9.3/../../../../arm-none-eabi/lib/thumb\libc.a(lib_a-svfiprintf.o)
 .rodata.str1.4
                0x00000000       0x30 d:/gcc-arm-none-eabi/bin/../lib/gcc/arm-none-eabi/4.9.3/../../../../arm-none-eabi/lib/thumb\libc.a(lib_a-svfiprintf.o)
 .text          0x00000000        0x0 d:/gcc-arm-none-eabi/bin/../lib/gcc/arm-none-eabi/4.9.3/../../../../arm-none-eabi/lib/thumb\libc.a(lib_a-callocr.o)
 .data          0x00000000        0x0 d:/gcc-arm-none-eabi/bin/../lib/gcc/arm-none-eabi/4.9.3/../../../../arm-none-eabi/lib/thumb\libc.a(lib_a-callocr.o)
 .bss           0x00000000        0x0 d:/gcc-arm-none-eabi/bin/../lib/gcc/arm-none-eabi/4.9.3/../../../../arm-none-eabi/lib/thumb\libc.a(lib_a-callocr.o)
 .text          0x00000000        0x0 d:/gcc-arm-none-eabi/bin/../lib/gcc/arm-none-eabi/4.9.3/../../../../arm-none-eabi/lib/thumb\libc.a(lib_a-memmove.o)
 .data          0x00000000        0x0 d:/gcc-arm-none-eabi/bin/../lib/gcc/arm-none-eabi/4.9.3/../../../../arm-none-eabi/lib/thumb\libc.a(lib_a-memmove.o)
 .bss           0x00000000        0x0 d:/gcc-arm-none-eabi/bin/../lib/gcc/arm-none-eabi/4.9.3/../../../../arm-none-eabi/lib/thumb\libc.a(lib_a-memmove.o)
 .text          0x00000000        0x0 d:/gcc-arm-none-eabi/bin/../lib/gcc/arm-none-eabi/4.9.3/../../../../arm-none-eabi/lib/thumb\libc.a(lib_a-reallocr.o)
 .data          0x00000000        0x0 d:/gcc-arm-none-eabi/bin/../lib/gcc/arm-none-eabi/4.9.3/../../../../arm-none-eabi/lib/thumb\libc.a(lib_a-reallocr.o)
 .bss           0x00000000        0x0 d:/gcc-arm-none-eabi/bin/../lib/gcc/arm-none-eabi/4.9.3/../../../../arm-none-eabi/lib/thumb\libc.a(lib_a-reallocr.o)
 .data          0x00000000        0x0 d:/gcc-arm-none-eabi/bin/../lib/gcc/arm-none-eabi/4.9.3/thumb\libgcc.a(_udivsi3.o)
 .bss           0x00000000        0x0 d:/gcc-arm-none-eabi/bin/../lib/gcc/arm-none-eabi/4.9.3/thumb\libgcc.a(_udivsi3.o)
 .data          0x00000000        0x0 d:/gcc-arm-none-eabi/bin/../lib/gcc/arm-none-eabi/4.9.3/thumb\libgcc.a(_divsi3.o)
 .bss           0x00000000        0x0 d:/gcc-arm-none-eabi/bin/../lib/gcc/arm-none-eabi/4.9.3/thumb\libgcc.a(_divsi3.o)
 .data          0x00000000        0x0 d:/gcc-arm-none-eabi/bin/../lib/gcc/arm-none-eabi/4.9.3/thumb\libgcc.a(_dvmd_tls.o)
 .bss           0x00000000        0x0 d:/gcc-arm-none-eabi/bin/../lib/gcc/arm-none-eabi/4.9.3/thumb\libgcc.a(_dvmd_tls.o)
 .data          0x00000000        0x0 d:/gcc-arm-none-eabi/bin/../lib/gcc/arm-none-eabi/4.9.3/thumb\libgcc.a(_arm_addsubdf3.o)
 .bss           0x00000000        0x0 d:/gcc-arm-none-eabi/bin/../lib/gcc/arm-none-eabi/4.9.3/thumb\libgcc.a(_arm_addsubdf3.o)
 .data          0x00000000        0x0 d:/gcc-arm-none-eabi/bin/../lib/gcc/arm-none-eabi/4.9.3/thumb\libgcc.a(_arm_muldivdf3.o)
 .bss           0x00000000        0x0 d:/gcc-arm-none-eabi/bin/../lib/gcc/arm-none-eabi/4.9.3/thumb\libgcc.a(_arm_muldivdf3.o)
 .data          0x00000000        0x0 d:/gcc-arm-none-eabi/bin/../lib/gcc/arm-none-eabi/4.9.3/thumb\libgcc.a(_arm_cmpdf2.o)
 .bss           0x00000000        0x0 d:/gcc-arm-none-eabi/bin/../lib/gcc/arm-none-eabi/4.9.3/thumb\libgcc.a(_arm_cmpdf2.o)
 .data          0x00000000        0x0 d:/gcc-arm-none-eabi/bin/../lib/gcc/arm-none-eabi/4.9.3/thumb\libgcc.a(_arm_fixdfsi.o)
 .bss           0x00000000        0x0 d:/gcc-arm-none-eabi/bin/../lib/gcc/arm-none-eabi/4.9.3/thumb\libgcc.a(_arm_fixdfsi.o)
 .data          0x00000000        0x0 d:/gcc-arm-none-eabi/bin/../lib/gcc/arm-none-eabi/4.9.3/thumb\libgcc.a(_aeabi_uldivmod.o)
 .bss           0x00000000        0x0 d:/gcc-arm-none-eabi/bin/../lib/gcc/arm-none-eabi/4.9.3/thumb\libgcc.a(_aeabi_uldivmod.o)
 .data          0x00000000        0x0 d:/gcc-arm-none-eabi/bin/../lib/gcc/arm-none-eabi/4.9.3/thumb\libgcc.a(bpabi.o)
 .bss           0x00000000        0x0 d:/gcc-arm-none-eabi/bin/../lib/gcc/arm-none-eabi/4.9.3/thumb\libgcc.a(bpabi.o)
 .data          0x00000000        0x0 d:/gcc-arm-none-eabi/bin/../lib/gcc/arm-none-eabi/4.9.3/thumb\libgcc.a(_muldi3.o)
 .bss           0x00000000        0x0 d:/gcc-arm-none-eabi/bin/../lib/gcc/arm-none-eabi/4.9.3/thumb\libgcc.a(_muldi3.o)
 .data          0x00000000        0x0 d:/gcc-arm-none-eabi/bin/../lib/gcc/arm-none-eabi/4.9.3/thumb\libgcc.a(_divdi3.o)
 .bss           0x00000000        0x0 d:/gcc-arm-none-eabi/bin/../lib/gcc/arm-none-eabi/4.9.3/thumb\libgcc.a(_divdi3.o)
 .ARM.extab     0x00000000        0x0 d:/gcc-arm-none-eabi/bin/../lib/gcc/arm-none-eabi/4.9.3/thumb\libgcc.a(_divdi3.o)
 .data          0x00000000        0x0 d:/gcc-arm-none-eabi/bin/../lib/gcc/arm-none-eabi/4.9.3/thumb\libgcc.a(_udivdi3.o)
 .bss           0x00000000        0x0 d:/gcc-arm-none-eabi/bin/../lib/gcc/arm-none-eabi/4.9.3/thumb\libgcc.a(_udivdi3.o)
 .ARM.extab     0x00000000        0x0 d:/gcc-arm-none-eabi/bin/../lib/gcc/arm-none-eabi/4.9.3/thumb\libgcc.a(_udivdi3.o)
 .data          0x00000000        0x0 d:/gcc-arm-none-eabi/bin/../lib/gcc/arm-none-eabi/4.9.3/thumb\libgcc.a(_clzdi2.o)
 .bss           0x00000000        0x0 d:/gcc-arm-none-eabi/bin/../lib/gcc/arm-none-eabi/4.9.3/thumb\libgcc.a(_clzdi2.o)
 .data          0x00000000        0x0 d:/gcc-arm-none-eabi/bin/../lib/gcc/arm-none-eabi/4.9.3/thumb\libgcc.a(_clzsi2.o)
 .bss           0x00000000        0x0 d:/gcc-arm-none-eabi/bin/../lib/gcc/arm-none-eabi/4.9.3/thumb\libgcc.a(_clzsi2.o)
 .text          0x00000000        0x0 d:/gcc-arm-none-eabi/bin/../lib/gcc/arm-none-eabi/4.9.3/thumb/crtend.o
 .data          0x00000000        0x0 d:/gcc-arm-none-eabi/bin/../lib/gcc/arm-none-eabi/4.9.3/thumb/crtend.o
 .bss           0x00000000        0x0 d:/gcc-arm-none-eabi/bin/../lib/gcc/arm-none-eabi/4.9.3/thumb/crtend.o
 .jcr           0x00000000        0x4 d:/gcc-arm-none-eabi/bin/../lib/gcc/arm-none-eabi/4.9.3/thumb/crtend.o
 .text          0x00000000        0x0 d:/gcc-arm-none-eabi/bin/../lib/gcc/arm-none-eabi/4.9.3/thumb/crtn.o
 .data          0x00000000        0x0 d:/gcc-arm-none-eabi/bin/../lib/gcc/arm-none-eabi/4.9.3/thumb/crtn.o
 .bss           0x00000000        0x0 d:/gcc-arm-none-eabi/bin/../lib/gcc/arm-none-eabi/4.9.3/thumb/crtn.o

Memory Configuration

Name             Origin             Length             Attributes
RAM              0x20000000         0x00010000         xrw
FLASH            0x08000000         0x00020000         xr
FLASHB1          0x00000000         0x00000000         xr
EXTMEMB0         0x00000000         0x00000000         xr
EXTMEMB1         0x00000000         0x00000000         xr
EXTMEMB2         0x00000000         0x00000000         xr
EXTMEMB3         0x00000000         0x00000000         xr
*default*        0x00000000         0xffffffff

Linker script and memory map

LOAD d:/gcc-arm-none-eabi/bin/../lib/gcc/arm-none-eabi/4.9.3/thumb/crti.o
LOAD d:/gcc-arm-none-eabi/bin/../lib/gcc/arm-none-eabi/4.9.3/thumb/crtbegin.o
LOAD d:/gcc-arm-none-eabi/bin/../lib/gcc/arm-none-eabi/4.9.3/../../../../arm-none-eabi/lib/thumb/crt0.o
                0x00000100                _sys_stack_size = 0x100
LOAD Src/main.o
LOAD Src/stm32f10x_it.o
LOAD Src/Stm32l_level.o
LOAD Src/Lcd3310.o
LOAD Src/StringsConv.o
LOAD Src/ParTest.o
LOAD Src/timertest.o
LOAD FreeRTOS_Source/croutine.o
LOAD FreeRTOS_Source/event_groups.o
LOAD FreeRTOS_Source/list.o
LOAD FreeRTOS_Source/queue.o
LOAD FreeRTOS_Source/tasks.o
LOAD FreeRTOS_Source/timers.o
LOAD FreeRTOS_Source/portable/GCC/ARM_CM3/port.o
LOAD FreeRTOS_Source/Full/BlockQ.o
LOAD FreeRTOS_Source/Full/comtest.o
LOAD FreeRTOS_Source/Full/death.o
LOAD FreeRTOS_Source/Full/dynamic.o
LOAD FreeRTOS_Source/Full/events.o
LOAD FreeRTOS_Source/Full/flash.o
LOAD FreeRTOS_Source/Full/integer.o
LOAD FreeRTOS_Source/Full/PollQ.o
LOAD FreeRTOS_Source/Full/print.o
LOAD FreeRTOS_Source/Full/semtest.o
LOAD FreeRTOS_Source/Full/QPeek.o
LOAD FreeRTOS_Source/Full/GenQTest.o
LOAD FreeRTOS_Source/Full/recmutex.o
LOAD FreeRTOS_Source/portable/MemMang/heap_2.o
LOAD Src/syscalls.o
LOAD STLibrary/src/stm32f10x_gpio.o
LOAD STLibrary/src/stm32f10x_nvic.o
LOAD STLibrary/src/stm32f10x_rcc.o
LOAD STLibrary/src/stm32f10x_systick.o
LOAD STLibrary/src/stm32f10x_tim.o
LOAD STLibrary/src/cortexm3_macro.o
LOAD STLibrary/src/stm32f10x_vector.o
START GROUP
LOAD d:/gcc-arm-none-eabi/bin/../lib/gcc/arm-none-eabi/4.9.3/thumb\libgcc.a
LOAD d:/gcc-arm-none-eabi/bin/../lib/gcc/arm-none-eabi/4.9.3/../../../../arm-none-eabi/lib/thumb\libc.a
END GROUP
LOAD d:/gcc-arm-none-eabi/bin/../lib/gcc/arm-none-eabi/4.9.3/thumb/crtend.o
LOAD d:/gcc-arm-none-eabi/bin/../lib/gcc/arm-none-eabi/4.9.3/thumb/crtn.o
                0x00000000                PROVIDE (Undefined_Handler, 0x0)
                0x00000000                PROVIDE (SWI_Handler, 0x0)
                0x00000000                PROVIDE (IRQ_Handler, 0x0)
                0x00000000                PROVIDE (Prefetch_Handler, 0x0)
                0x00000000                PROVIDE (Abort_Handler, 0x0)
                0x00000000                PROVIDE (FIQ_Handler, 0x0)
                0x00000000                PROVIDE (NMIException, 0x0)
                0x00000000                PROVIDE (HardFaultException, 0x0)
                0x00000000                PROVIDE (MemManageException, 0x0)
                0x00000000                PROVIDE (BusFaultException, 0x0)
                0x00000000                PROVIDE (UsageFaultException, 0x0)
                0x00000000                PROVIDE (SVCHandler, 0x0)
                0x00000000                PROVIDE (DebugMonitor, 0x0)
                0x00000000                PROVIDE (PendSVC, 0x0)
                0x00000000                PROVIDE (SysTickHandler, 0x0)
                0x00000000                PROVIDE (WWDG_IRQHandler, 0x0)
                0x00000000                PROVIDE (PVD_IRQHandler, 0x0)
                0x00000000                PROVIDE (TAMPER_IRQHandler, 0x0)
                0x00000000                PROVIDE (RTC_IRQHandler, 0x0)
                0x00000000                PROVIDE (FLASH_IRQHandler, 0x0)
                0x00000000                PROVIDE (RCC_IRQHandler, 0x0)
                0x00000000                PROVIDE (EXTI0_IRQHandler, 0x0)
                0x00000000                PROVIDE (EXTI1_IRQHandler, 0x0)
                0x00000000                PROVIDE (EXTI2_IRQHandler, 0x0)
                0x00000000                PROVIDE (EXTI3_IRQHandler, 0x0)
                0x00000000                PROVIDE (EXTI4_IRQHandler, 0x0)
                0x00000000                PROVIDE (DMAChannel1_IRQHandler, 0x0)
                0x00000000                PROVIDE (DMAChannel2_IRQHandler, 0x0)
                0x00000000                PROVIDE (DMAChannel3_IRQHandler, 0x0)
                0x00000000                PROVIDE (DMAChannel4_IRQHandler, 0x0)
                0x00000000                PROVIDE (DMAChannel5_IRQHandler, 0x0)
                0x00000000                PROVIDE (DMAChannel6_IRQHandler, 0x0)
                0x00000000                PROVIDE (DMAChannel7_IRQHandler, 0x0)
                0x00000000                PROVIDE (ADC_IRQHandler, 0x0)
                0x00000000                PROVIDE (USB_HP_CAN_TX_IRQHandler, 0x0)
                0x00000000                PROVIDE (USB_LP_CAN_RX0_IRQHandler, 0x0)
                0x00000000                PROVIDE (CAN_RX1_IRQHandler, 0x0)
                0x00000000                PROVIDE (CAN_SCE_IRQHandler, 0x0)
                0x00000000                PROVIDE (EXTI9_5_IRQHandler, 0x0)
                0x00000000                PROVIDE (TIM1_BRK_IRQHandler, 0x0)
                0x00000000                PROVIDE (TIM1_UP_IRQHandler, 0x0)
                0x00000000                PROVIDE (TIM1_TRG_COM_IRQHandler, 0x0)
                0x00000000                PROVIDE (TIM1_CC_IRQHandler, 0x0)
                0x00000000                PROVIDE (TIM2_IRQHandler, 0x0)
                0x00000000                PROVIDE (TIM3_IRQHandler, 0x0)
                0x00000000                PROVIDE (TIM4_IRQHandler, 0x0)
                0x00000000                PROVIDE (I2C1_EV_IRQHandler, 0x0)
                0x00000000                PROVIDE (I2C1_ER_IRQHandler, 0x0)
                0x00000000                PROVIDE (I2C2_EV_IRQHandler, 0x0)
                0x00000000                PROVIDE (I2C2_ER_IRQHandler, 0x0)
                0x00000000                PROVIDE (SPI1_IRQHandler, 0x0)
                0x00000000                PROVIDE (SPI2_IRQHandler, 0x0)
                0x00000000                PROVIDE (USART1_IRQHandler, 0x0)
                0x00000000                PROVIDE (USART2_IRQHandler, 0x0)
                0x00000000                PROVIDE (USART3_IRQHandler, 0x0)
                0x00000000                PROVIDE (EXTI15_10_IRQHandler, 0x0)
                0x00000000                PROVIDE (RTCAlarm_IRQHandler, 0x0)
                0x00000000                PROVIDE (USBWakeUp_IRQHandler, 0x0)
                0x42000000                PERIPH_BB_BASE = 0x42000000
                0x22000000                SRAM_BB_BASE = 0x22000000
                0x20000000                SRAM_BASE = 0x20000000
                0x40000000                PERIPH_BASE = 0x40000000
                0x40022000                PROVIDE (FLASH_BASE, 0x40022000)
                0x1ffff800                PROVIDE (OB_BASE, 0x1ffff800)
                0x40000000                APB1PERIPH_BASE = PERIPH_BASE
                0x40010000                APB2PERIPH_BASE = (PERIPH_BASE + 0x10000)
                0x40020000                AHBPERIPH_BASE = (PERIPH_BASE + 0x20000)
                0x40000000                PROVIDE (TIM2, (APB1PERIPH_BASE + 0x0))
                0x40000400                PROVIDE (TIM3, (APB1PERIPH_BASE + 0x400))
                0x40000800                PROVIDE (TIM4, (APB1PERIPH_BASE + 0x800))
                0x40002800                PROVIDE (RTC, (APB1PERIPH_BASE + 0x2800))
                0x40002c00                PROVIDE (WWDG, (APB1PERIPH_BASE + 0x2c00))
                0x40003000                PROVIDE (IWDG, (APB1PERIPH_BASE + 0x3000))
                0x40003800                PROVIDE (SPI2, (APB1PERIPH_BASE + 0x3800))
                0x40004400                PROVIDE (USART2, (APB1PERIPH_BASE + 0x4400))
                0x40004800                PROVIDE (USART3, (APB1PERIPH_BASE + 0x4800))
                0x40005400                PROVIDE (I2C1, (APB1PERIPH_BASE + 0x5400))
                0x40005800                PROVIDE (I2C2, (APB1PERIPH_BASE + 0x5800))
                0x40006400                PROVIDE (CAN, (APB1PERIPH_BASE + 0x6400))
                0x40006c00                PROVIDE (BKP, (APB1PERIPH_BASE + 0x6c00))
                0x40007000                PROVIDE (PWR, (APB1PERIPH_BASE + 0x7000))
                0x40010000                PROVIDE (AFIO, (APB2PERIPH_BASE + 0x0))
                0x40010400                PROVIDE (EXTI, (APB2PERIPH_BASE + 0x400))
                0x40010800                PROVIDE (GPIOA, (APB2PERIPH_BASE + 0x800))
                0x40010c00                PROVIDE (GPIOB, (APB2PERIPH_BASE + 0xc00))
                0x40011000                PROVIDE (GPIOC, (APB2PERIPH_BASE + 0x1000))
                0x40011400                PROVIDE (GPIOD, (APB2PERIPH_BASE + 0x1400))
                0x40011800                PROVIDE (GPIOE, (APB2PERIPH_BASE + 0x1800))
                0x40012400                PROVIDE (ADC1, (APB2PERIPH_BASE + 0x2400))
                0x40012800                PROVIDE (ADC2, (APB2PERIPH_BASE + 0x2800))
                0x40012c00                PROVIDE (TIM1, (APB2PERIPH_BASE + 0x2c00))
                0x40013000                PROVIDE (SPI1, (APB2PERIPH_BASE + 0x3000))
                0x40013800                PROVIDE (USART1, (APB2PERIPH_BASE + 0x3800))
                0x40020000                PROVIDE (DMA, (AHBPERIPH_BASE + 0x0))
                0x40020008                PROVIDE (DMA_Channel1, (AHBPERIPH_BASE + 0x8))
                0x4002001c                PROVIDE (DMA_Channel2, (AHBPERIPH_BASE + 0x1c))
                0x40020030                PROVIDE (DMA_Channel3, (AHBPERIPH_BASE + 0x30))
                0x40020044                PROVIDE (DMA_Channel4, (AHBPERIPH_BASE + 0x44))
                0x40020058                PROVIDE (DMA_Channel5, (AHBPERIPH_BASE + 0x58))
                0x4002006c                PROVIDE (DMA_Channel6, (AHBPERIPH_BASE + 0x6c))
                0x40020080                PROVIDE (DMA_Channel7, (AHBPERIPH_BASE + 0x80))
                0x40021000                PROVIDE (RCC, (AHBPERIPH_BASE + 0x1000))
                0xe000e000                SCS_BASE = 0xe000e000
                0xe000e010                PROVIDE (SysTick, (SCS_BASE + 0x10))
                0xe000e100                PROVIDE (NVIC, (SCS_BASE + 0x100))
                0xe000ed00                PROVIDE (SCB, (SCS_BASE + 0xd00))
                0x20010000                _estack = 0x20010000

.isr_vector     0x08000000      0x10c
                0x08000000                . = ALIGN (0x4)
 *(.isr_vector)
 .isr_vector    0x08000000      0x10c STLibrary/src/stm32f10x_vector.o
                0x08000000                g_pfnVectors
                0x0800010c                . = ALIGN (0x4)

.flashtext      0x0800010c        0x0
                0x0800010c                . = ALIGN (0x4)
 *(.flashtext)
                0x0800010c                . = ALIGN (0x4)
                0x0800010c                __exidx_start = .

.ARM.exidx      0x0800010c        0x8
 *(.ARM.exidx* .gnu.linkonce.armexidx.*)
 .ARM.exidx     0x0800010c        0x8 d:/gcc-arm-none-eabi/bin/../lib/gcc/arm-none-eabi/4.9.3/thumb\libgcc.a(_divdi3.o)
 .ARM.exidx     0x08000114        0x0 d:/gcc-arm-none-eabi/bin/../lib/gcc/arm-none-eabi/4.9.3/thumb\libgcc.a(_udivdi3.o)
                                  0x8 (size before relaxing)
                0x08000114                __exidx_end = .

.eh_frame_hdr
 *(.eh_frame_hdr)

.eh_frame       0x08000114        0x4
 *(.eh_frame)
 .eh_frame      0x08000114        0x0 d:/gcc-arm-none-eabi/bin/../lib/gcc/arm-none-eabi/4.9.3/thumb/crtbegin.o
 .eh_frame      0x08000114        0x0 d:/gcc-arm-none-eabi/bin/../lib/gcc/arm-none-eabi/4.9.3/../../../../arm-none-eabi/lib/thumb\libc.a(lib_a-strcmp.o)
                                 0x44 (size before relaxing)
 .eh_frame      0x08000114        0x4 d:/gcc-arm-none-eabi/bin/../lib/gcc/arm-none-eabi/4.9.3/thumb/crtend.o

.text           0x08000118     0xcdbc
                0x08000118                . = ALIGN (0x4)
 *(.text)
 .text          0x08000118       0x70 d:/gcc-arm-none-eabi/bin/../lib/gcc/arm-none-eabi/4.9.3/thumb/crtbegin.o
 .text          0x08000188      0x264 Src/main.o
                0x08000188                main
                0x08000318                vApplicationStackOverflowHook
                0x08000324                vApplicationTickHook
 .text          0x080003ec      0x230 Src/stm32f10x_it.o
                0x080003ec                NMIException
                0x080003f8                HardFaultException
                0x08000400                MemManageException
                0x08000408                BusFaultException
                0x08000410                UsageFaultException
                0x08000418                DebugMonitor
                0x08000424                WWDG_IRQHandler
                0x08000430                PVD_IRQHandler
                0x0800043c                TAMPER_IRQHandler
                0x08000448                RTC_IRQHandler
                0x08000454                FLASH_IRQHandler
                0x08000460                RCC_IRQHandler
                0x0800046c                EXTI0_IRQHandler
                0x08000478                EXTI1_IRQHandler
                0x08000484                EXTI2_IRQHandler
                0x08000490                EXTI3_IRQHandler
                0x0800049c                EXTI4_IRQHandler
                0x080004a8                DMAChannel1_IRQHandler
                0x080004b4                DMAChannel2_IRQHandler
                0x080004c0                DMAChannel3_IRQHandler
                0x080004cc                DMAChannel4_IRQHandler
                0x080004d8                DMAChannel5_IRQHandler
                0x080004e4                DMAChannel6_IRQHandler
                0x080004f0                DMAChannel7_IRQHandler
                0x080004fc                ADC_IRQHandler
                0x08000508                USB_HP_CAN_TX_IRQHandler
                0x08000514                USB_LP_CAN_RX0_IRQHandler
                0x08000520                CAN_RX1_IRQHandler
                0x0800052c                CAN_SCE_IRQHandler
                0x08000538                EXTI9_5_IRQHandler
                0x08000544                TIM1_BRK_IRQHandler
                0x08000550                TIM1_UP_IRQHandler
                0x0800055c                TIM1_TRG_COM_IRQHandler
                0x08000568                TIM1_CC_IRQHandler
                0x08000574                TIM3_IRQHandler
                0x08000580                TIM4_IRQHandler
                0x0800058c                I2C1_EV_IRQHandler
                0x08000598                I2C1_ER_IRQHandler
                0x080005a4                I2C2_EV_IRQHandler
                0x080005b0                I2C2_ER_IRQHandler
                0x080005bc                SPI1_IRQHandler
                0x080005c8                SPI2_IRQHandler
                0x080005d4                USART1_IRQHandler
                0x080005e0                USART2_IRQHandler
                0x080005ec                USART3_IRQHandler
                0x080005f8                EXTI15_10_IRQHandler
                0x08000604                RTCAlarm_IRQHandler
                0x08000610                USBWakeUp_IRQHandler
 .text          0x0800061c       0x50 Src/ParTest.o
                0x0800061c                vParTestInitialise
 .text          0x0800066c      0x13c Src/timertest.o
                0x0800066c                vSetupHighFrequencyTimer
                0x08000724                TIM2_IRQHandler
 .text          0x080007a8      0x164 FreeRTOS_Source/list.o
                0x080007a8                vListInitialise
                0x080007e8                vListInitialiseItem
                0x08000800                vListInsertEnd
                0x08000848                vListInsert
                0x080008b8                uxListRemove
 .text          0x0800090c      0x9f8 FreeRTOS_Source/queue.o
                0x0800090c                xQueueGenericReset
                0x080009b0                xQueueGenericCreate
                0x08000a34                xQueueCreateMutex
                0x08000ab8                xQueueGiveMutexRecursive
                0x08000b04                xQueueTakeMutexRecursive
                0x08000b58                xQueueGenericSend
                0x08000c7c                xQueueGenericSendFromISR
                0x08000d04                xQueueGiveFromISR
                0x08000d84                xQueueGenericReceive
                0x08000ef4                xQueueReceiveFromISR
                0x08000f78                xQueuePeekFromISR
                0x08000fc4                uxQueueMessagesWaiting
                0x08000fe4                uxQueueSpacesAvailable
                0x08001010                uxQueueMessagesWaitingFromISR
                0x0800102c                vQueueDelete
                0x08001044                uxQueueGetQueueNumber
                0x0800105c                vQueueSetQueueNumber
                0x08001078                ucQueueGetQueueType
                0x08001280                xQueueIsQueueEmptyFromISR
                0x080012d8                xQueueIsQueueFullFromISR
 .text          0x08001304     0x1d90 FreeRTOS_Source/tasks.o
                0x08001304                xTaskGenericCreate
                0x08001444                vTaskDelete
                0x08001518                vTaskDelayUntil
                0x080015d0                vTaskDelay
                0x08001644                uxTaskPriorityGet
                0x08001678                uxTaskPriorityGetFromISR
                0x080016b0                vTaskPrioritySet
                0x080017e4                vTaskSuspend
                0x08001920                vTaskResume
                0x080019b0                xTaskResumeFromISR
                0x08001a5c                vTaskStartScheduler
                0x08001abc                vTaskEndScheduler
                0x08001ad4                vTaskSuspendAll
                0x08001af0                xTaskResumeAll
                0x08001bf0                xTaskGetTickCount
                0x08001c10                xTaskGetTickCountFromISR
                0x08001c34                uxTaskGetNumberOfTasks
                0x08001c4c                uxTaskGetSystemState
                0x08001d4c                xTaskIncrementTick
                0x08001ebc                vTaskSwitchContext
                0x08001fcc                vTaskPlaceOnEventList
                0x0800204c                vTaskPlaceOnUnorderedEventList
                0x080020dc                xTaskRemoveFromEventList
                0x08002188                xTaskRemoveFromUnorderedEventList
                0x0800221c                vTaskSetTimeOutState
                0x08002248                xTaskCheckForTimeOut
                0x080022d0                vTaskMissedYield
                0x080022e8                uxTaskGetTaskNumber
                0x08002314                vTaskSetTaskNumber
                0x08002788                xTaskGetCurrentTaskHandle
                0x080027a8                vTaskPriorityInherit
                0x08002898                xTaskPriorityDisinherit
                0x080029b0                vTaskList
                0x08002aa8                vTaskGetRunTimeStats
                0x08002b8c                uxTaskResetEventItemValue
                0x08002bbc                pvTaskIncrementMutexHeldCount
                0x08002be4                ulTaskNotifyTake
                0x08002cbc                xTaskNotifyWait
                0x08002db8                xTaskGenericNotify
                0x08002eb8                xTaskNotifyFromISR
                0x08002fd4                vTaskNotifyGiveFromISR
 .text          0x08003094      0x200 FreeRTOS_Source/portable/GCC/ARM_CM3/port.o
                0x08003094                pxPortInitialiseStack
                0x080030f8                vPortSVCHandler
                0x08003138                xPortStartScheduler
                0x08003174                vPortEndScheduler
                0x08003180                vPortYield
                0x080031a0                vPortEnterCritical
                0x080031c0                vPortExitCritical
                0x080031e4                ulPortSetInterruptMask
                0x080031f8                vPortClearInterruptMask
                0x08003200                xPortPendSVHandler
                0x08003244                xPortSysTickHandler
                0x0800326c                vPortSetupTimerInterrupt
 .text          0x08003294      0x330 FreeRTOS_Source/Full/BlockQ.o
                0x08003294                vStartBlockingQueueTasks
                0x08003528                xAreBlockingQueuesStillRunning
 .text          0x080035c4      0x118 FreeRTOS_Source/Full/integer.o
                0x080035c4                vStartIntegerMathTasks
                0x08003688                xAreIntegerMathsTaskStillRunning
 .text          0x080036dc      0x19c FreeRTOS_Source/Full/PollQ.o
                0x080036dc                vStartPolledQueueTasks
                0x08003834                xArePollingQueuesStillRunning
 .text          0x08003878      0x2b0 FreeRTOS_Source/Full/semtest.o
                0x08003878                vStartSemaphoreTasks
                0x08003ac4                xAreSemaphoreTasksStillRunning
 .text          0x08003b28      0x410 FreeRTOS_Source/Full/QPeek.o
                0x08003b28                vStartQueuePeekTasks
                0x08003ef4                xAreQueuePeekTasksStillRunning
 .text          0x08003f38      0x72c FreeRTOS_Source/Full/GenQTest.o
                0x08003f38                vStartGenericQueueTasks
                0x08004600                xAreGenericQueueTasksStillRunning
 .text          0x08004664      0x324 FreeRTOS_Source/Full/recmutex.o
                0x08004664                vStartRecursiveMutexTasks
                0x080048f0                xAreRecursiveMutexTasksStillRunning
 .text          0x08004988      0x200 FreeRTOS_Source/portable/MemMang/heap_2.o
                0x08004988                pvPortMalloc
                0x08004aa4                vPortFree
                0x08004b14                xPortGetFreeHeapSize
                0x08004b2c                vPortInitialiseBlocks
 .text          0x08004b88       0xe4 Src/syscalls.o
                0x08004b88                _read_r
                0x08004ba4                _isatty
                0x08004bb0                _write_r
                0x08004bcc                _close_r
                0x08004be4                _lseek_r
                0x08004c00                _fstat_r
                0x08004c24                abort
                0x08004c2c                _sbrk_r
 .text          0x08004c6c      0x78c STLibrary/src/stm32f10x_nvic.o
                0x08004c6c                NVIC_DeInit
                0x08004ccc                NVIC_SCBDeInit
                0x08004d44                NVIC_PriorityGroupConfig
                0x08004d68                NVIC_Init
                0x08004e84                NVIC_StructInit
                0x08004eb0                NVIC_SETPRIMASK
                0x08004ebc                NVIC_RESETPRIMASK
                0x08004ec8                NVIC_SETFAULTMASK
                0x08004ed4                NVIC_RESETFAULTMASK
                0x08004ee0                NVIC_BASEPRICONFIG
                0x08004ef8                NVIC_GetBASEPRI
                0x08004f08                NVIC_GetCurrentPendingIRQChannel
                0x08004f2c                NVIC_GetIRQChannelPendingBitStatus
                0x08004f80                NVIC_SetIRQChannelPendingBit
                0x08004fa0                NVIC_ClearIRQChannelPendingBit
                0x08004fd4                NVIC_GetCurrentActiveHandler
                0x08004ff4                NVIC_GetIRQChannelActiveBitStatus
                0x08005048                NVIC_GetCPUID
                0x08005060                NVIC_SetVectorTable
                0x0800508c                NVIC_GenerateSystemReset
                0x080050a8                NVIC_GenerateCoreReset
                0x080050c4                NVIC_SystemLPConfig
                0x08005104                NVIC_SystemHandlerConfig
                0x08005154                NVIC_SystemHandlerPriorityConfig
                0x08005220                NVIC_GetSystemHandlerPendingBitStatus
                0x0800527c                NVIC_SetSystemHandlerPendingBit
                0x080052b0                NVIC_ClearSystemHandlerPendingBit
                0x080052e8                NVIC_GetSystemHandlerActiveBitStatus
                0x08005340                NVIC_GetFaultHandlerSources
                0x080053b8                NVIC_GetFaultAddress
 .text          0x080053f8      0x7e4 STLibrary/src/stm32f10x_rcc.o
                0x080053f8                RCC_DeInit
                0x08005454                RCC_HSEConfig
                0x080054b0                RCC_WaitForHSEStartUp
                0x08005510                RCC_AdjustHSICalibrationValue
                0x0800554c                RCC_HSICmd
                0x0800556c                RCC_PLLConfig
                0x080055a8                RCC_PLLCmd
                0x080055c8                RCC_SYSCLKConfig
                0x08005600                RCC_GetSYSCLKSource
                0x08005620                RCC_HCLKConfig
                0x08005658                RCC_PCLK1Config
                0x08005690                RCC_PCLK2Config
                0x080056c8                RCC_ITConfig
                0x08005714                RCC_USBCLKConfig
                0x08005730                RCC_ADCCLKConfig
                0x08005768                RCC_LSEConfig
                0x080057a8                RCC_LSICmd
                0x080057c8                RCC_RTCCLKConfig
                0x080057ec                RCC_RTCCLKCmd
                0x0800580c                RCC_GetClocksFreq
                0x08005968                RCC_AHBPeriphClockCmd
                0x080059a4                RCC_APB2PeriphClockCmd
                0x080059e0                RCC_APB1PeriphClockCmd
                0x08005a1c                RCC_APB2PeriphResetCmd
                0x08005a58                RCC_APB1PeriphResetCmd
                0x08005a94                RCC_BackupResetCmd
                0x08005ab4                RCC_ClockSecuritySystemCmd
                0x08005ad4                RCC_MCOConfig
                0x08005af4                RCC_GetFlagStatus
                0x08005b68                RCC_ClearFlag
                0x08005b84                RCC_GetITStatus
                0x08005bbc                RCC_ClearITPendingBit
 .text          0x08005bdc      0x14c STLibrary/src/stm32f10x_systick.o
                0x08005bdc                SysTick_CLKSourceConfig
                0x08005c14                SysTick_SetReload
                0x08005c30                SysTick_CounterCmd
                0x08005c78                SysTick_ITConfig
                0x08005cb0                SysTick_GetCounter
                0x08005cc8                SysTick_GetFlagStatus
 .text          0x08005d28     0x1af8 STLibrary/src/stm32f10x_tim.o
                0x08005d28                TIM_DeInit
                0x08005e30                TIM_TimeBaseInit
                0x08005eac                TIM_OC1Init
                0x08005fa4                TIM_OC2Init
                0x080060b8                TIM_OC3Init
                0x080061c8                TIM_OC4Init
                0x08006294                TIM_ICInit
                0x0800633c                TIM_PWMIConfig
                0x080063f4                TIM_BDTRConfig
                0x08006444                TIM_TimeBaseStructInit
                0x08006478                TIM_OCStructInit
                0x080064bc                TIM_ICStructInit
                0x080064ec                TIM_BDTRStructInit
                0x08006528                TIM_Cmd
                0x08006568                TIM_CtrlPWMOutputs
                0x080065b4                TIM_ITConfig
                0x080065fc                TIM_GenerateEvent
                0x08006618                TIM_DMAConfig
                0x08006640                TIM_DMACmd
                0x08006688                TIM_InternalClockConfig
                0x080066ac                TIM_ITRxExternalClockConfig
                0x080066d8                TIM_TIxExternalClockConfig
                0x08006738                TIM_ETRClockMode1Config
                0x08006794                TIM_ETRClockMode2Config
                0x080067d0                TIM_ETRConfig
                0x08006824                TIM_PrescalerConfig
                0x0800684c                TIM_CounterModeConfig
                0x08006888                TIM_SelectInputTrigger
                0x080068c0                TIM_EncoderInterfaceConfig
                0x08006958                TIM_ForcedOC1Config
                0x08006990                TIM_ForcedOC2Config
                0x080069cc                TIM_ForcedOC3Config
                0x08006a04                TIM_ForcedOC4Config
                0x08006a40                TIM_ARRPreloadConfig
                0x08006a80                TIM_SelectCOM
                0x08006ac0                TIM_SelectCCDMA
                0x08006b00                TIM_CCPreloadControl
                0x08006b40                TIM_OC1PreloadConfig
                0x08006b78                TIM_OC2PreloadConfig
                0x08006bb4                TIM_OC3PreloadConfig
                0x08006bec                TIM_OC4PreloadConfig
                0x08006c28                TIM_OC1FastConfig
                0x08006c60                TIM_OC2FastConfig
                0x08006c9c                TIM_OC3FastConfig
                0x08006cd4                TIM_OC4FastConfig
                0x08006d10                TIM_ClearOC1Ref
                0x08006d48                TIM_ClearOC2Ref
                0x08006d84                TIM_ClearOC3Ref
                0x08006dbc                TIM_ClearOC4Ref
                0x08006df8                TIM_OC1PolarityConfig
                0x08006e30                TIM_OC1NPolarityConfig
                0x08006e68                TIM_OC2PolarityConfig
                0x08006ea4                TIM_OC2NPolarityConfig
                0x08006ee0                TIM_OC3PolarityConfig
                0x08006f1c                TIM_OC3NPolarityConfig
                0x08006f58                TIM_OC4PolarityConfig
                0x08006f94                TIM_CCxCmd
                0x08006fe4                TIM_CCxNCmd
                0x08007034                TIM_SelectOCxM
                0x08007100                TIM_UpdateDisableConfig
                0x08007140                TIM_UpdateRequestConfig
                0x08007180                TIM_SelectHallSensor
                0x080071c0                TIM_SelectOnePulseMode
                0x080071f8                TIM_SelectOutputTrigger
                0x08007230                TIM_SelectSlaveMode
                0x08007268                TIM_SelectMasterSlaveMode
                0x080072a0                TIM_SetCounter
                0x080072bc                TIM_SetAutoreload
                0x080072d8                TIM_SetCompare1
                0x080072f4                TIM_SetCompare2
                0x08007310                TIM_SetCompare3
                0x0800732c                TIM_SetCompare4
                0x0800734c                TIM_SetIC1Prescaler
                0x08007384                TIM_SetIC2Prescaler
                0x080073c0                TIM_SetIC3Prescaler
                0x080073f8                TIM_SetIC4Prescaler
                0x08007434                TIM_SetClockDivision
                0x08007468                TIM_GetCapture1
                0x08007484                TIM_GetCapture2
                0x080074a0                TIM_GetCapture3
                0x080074bc                TIM_GetCapture4
                0x080074d8                TIM_GetCounter
                0x080074f4                TIM_GetPrescaler
                0x08007510                TIM_GetFlagStatus
                0x08007548                TIM_ClearFlag
                0x08007568                TIM_GetITStatus
                0x080075bc                TIM_ClearITPendingBit
 .text          0x08007820       0x6e STLibrary/src/cortexm3_macro.o
                0x08007820                __WFI
                0x08007824                __WFE
                0x08007828                __SEV
                0x0800782c                __ISB
                0x08007832                __DSB
                0x08007838                __DMB
                0x0800783e                __SVC
                0x08007842                __MRS_CONTROL
                0x08007848                __MSR_CONTROL
                0x08007852                __MRS_PSP
                0x08007858                __MSR_PSP
                0x0800785e                __MRS_MSP
                0x08007864                __MSR_MSP
                0x0800786a                __SETPRIMASK
                0x0800786e                __RESETPRIMASK
                0x08007872                __SETFAULTMASK
                0x08007876                __RESETFAULTMASK
                0x0800787a                __BASEPRICONFIG
                0x08007880                __GetBASEPRI
                0x08007886                __REV_HalfWord
                0x0800788a                __REV_Word
 *fill*         0x0800788e        0x2 
 .text          0x08007890       0x6c STLibrary/src/stm32f10x_vector.o
                0x08007890                Reset_Handler
 .text          0x080078fc      0x11c d:/gcc-arm-none-eabi/bin/../lib/gcc/arm-none-eabi/4.9.3/thumb\libgcc.a(_udivsi3.o)
                0x080078fc                __aeabi_uidiv
                0x080078fc                __udivsi3
                0x080079f8                __aeabi_uidivmod
 .text          0x08007a18      0x150 d:/gcc-arm-none-eabi/bin/../lib/gcc/arm-none-eabi/4.9.3/thumb\libgcc.a(_divsi3.o)
                0x08007a18                __divsi3
                0x08007a18                __aeabi_idiv
                0x08007b48                __aeabi_idivmod
 .text          0x08007b68        0x4 d:/gcc-arm-none-eabi/bin/../lib/gcc/arm-none-eabi/4.9.3/thumb\libgcc.a(_dvmd_tls.o)
                0x08007b68                __aeabi_idiv0
                0x08007b68                __aeabi_ldiv0
 .text          0x08007b6c      0x41c d:/gcc-arm-none-eabi/bin/../lib/gcc/arm-none-eabi/4.9.3/thumb\libgcc.a(_arm_addsubdf3.o)
                0x08007b6c                __aeabi_drsub
                0x08007b74                __aeabi_dsub
                0x08007b74                __subdf3
                0x08007b78                __aeabi_dadd
                0x08007b78                __adddf3
                0x08007e88                __floatunsidf
                0x08007e88                __aeabi_ui2d
                0x08007eac                __floatsidf
                0x08007eac                __aeabi_i2d
                0x08007ed4                __aeabi_f2d
                0x08007ed4                __extendsfdf2
                0x08007f14                __floatundidf
                0x08007f14                __aeabi_ul2d
                0x08007f28                __floatdidf
                0x08007f28                __aeabi_l2d
 .text          0x08007f88      0x49c d:/gcc-arm-none-eabi/bin/../lib/gcc/arm-none-eabi/4.9.3/thumb\libgcc.a(_arm_muldivdf3.o)
                0x08007f88                __aeabi_dmul
                0x08007f88                __muldf3
                0x08008218                __divdf3
                0x08008218                __aeabi_ddiv
 .text          0x08008424      0x144 d:/gcc-arm-none-eabi/bin/../lib/gcc/arm-none-eabi/4.9.3/thumb\libgcc.a(_arm_cmpdf2.o)
                0x08008424                __gtdf2
                0x08008424                __gedf2
                0x0800842c                __ltdf2
                0x0800842c                __ledf2
                0x08008434                __nedf2
                0x08008434                __eqdf2
                0x08008434                __cmpdf2
                0x080084bc                __aeabi_cdrcmple
                0x080084d8                __aeabi_cdcmpeq
                0x080084d8                __aeabi_cdcmple
                0x080084f0                __aeabi_dcmpeq
                0x08008508                __aeabi_dcmplt
                0x08008520                __aeabi_dcmple
                0x08008538                __aeabi_dcmpge
                0x08008550                __aeabi_dcmpgt
 .text          0x08008568       0x5c d:/gcc-arm-none-eabi/bin/../lib/gcc/arm-none-eabi/4.9.3/thumb\libgcc.a(_arm_fixdfsi.o)
                0x08008568                __aeabi_d2iz
                0x08008568                __fixdfsi
 .text          0x080085c4       0x3c d:/gcc-arm-none-eabi/bin/../lib/gcc/arm-none-eabi/4.9.3/thumb\libgcc.a(_aeabi_uldivmod.o)
                0x080085c4                __aeabi_uldivmod
 .text          0x08008600       0x74 d:/gcc-arm-none-eabi/bin/../lib/gcc/arm-none-eabi/4.9.3/thumb\libgcc.a(bpabi.o)
                0x08008600                __gnu_ldivmod_helper
                0x0800863c                __gnu_uldivmod_helper
 .text          0x08008674       0x60 d:/gcc-arm-none-eabi/bin/../lib/gcc/arm-none-eabi/4.9.3/thumb\libgcc.a(_muldi3.o)
                0x08008674                __muldi3
                0x08008674                __aeabi_lmul
 .text          0x080086d4      0x1f4 d:/gcc-arm-none-eabi/bin/../lib/gcc/arm-none-eabi/4.9.3/thumb\libgcc.a(_divdi3.o)
                0x080086d4                __divdi3
 .text          0x080088c8      0x15c d:/gcc-arm-none-eabi/bin/../lib/gcc/arm-none-eabi/4.9.3/thumb\libgcc.a(_udivdi3.o)
                0x080088c8                __udivdi3
 .text          0x08008a24       0x28 d:/gcc-arm-none-eabi/bin/../lib/gcc/arm-none-eabi/4.9.3/thumb\libgcc.a(_clzdi2.o)
                0x08008a24                __clzdi2
 .text          0x08008a4c       0x48 d:/gcc-arm-none-eabi/bin/../lib/gcc/arm-none-eabi/4.9.3/thumb\libgcc.a(_clzsi2.o)
                0x08008a4c                __clzsi2
 *(.text.*)
 .text.memcmp   0x08008a94       0x54 d:/gcc-arm-none-eabi/bin/../lib/gcc/arm-none-eabi/4.9.3/../../../../arm-none-eabi/lib/thumb\libc.a(lib_a-memcmp.o)
                0x08008a94                memcmp
 .text.memcpy   0x08008ae8       0x80 d:/gcc-arm-none-eabi/bin/../lib/gcc/arm-none-eabi/4.9.3/../../../../arm-none-eabi/lib/thumb\libc.a(lib_a-memcpy.o)
                0x08008ae8                memcpy
 .text.memset   0x08008b68       0x94 d:/gcc-arm-none-eabi/bin/../lib/gcc/arm-none-eabi/4.9.3/../../../../arm-none-eabi/lib/thumb\libc.a(lib_a-memset.o)
                0x08008b68                memset
 .text.sprintf  0x08008bfc       0x44 d:/gcc-arm-none-eabi/bin/../lib/gcc/arm-none-eabi/4.9.3/../../../../arm-none-eabi/lib/thumb\libc.a(lib_a-sprintf.o)
                0x08008bfc                sprintf
 .text.strcpy   0x08008c40       0x10 d:/gcc-arm-none-eabi/bin/../lib/gcc/arm-none-eabi/4.9.3/../../../../arm-none-eabi/lib/thumb\libc.a(lib_a-strcpy.o)
                0x08008c40                strcpy
 .text.strlen   0x08008c50       0x6c d:/gcc-arm-none-eabi/bin/../lib/gcc/arm-none-eabi/4.9.3/../../../../arm-none-eabi/lib/thumb\libc.a(lib_a-strlen.o)
                0x08008c50                strlen
 .text._svfprintf_r
                0x08008cbc     0x1548 d:/gcc-arm-none-eabi/bin/../lib/gcc/arm-none-eabi/4.9.3/../../../../arm-none-eabi/lib/thumb\libc.a(lib_a-svfprintf.o)
                0x08008cbc                _svfprintf_r
 .text.quorem   0x0800a204      0x160 d:/gcc-arm-none-eabi/bin/../lib/gcc/arm-none-eabi/4.9.3/../../../../arm-none-eabi/lib/thumb\libc.a(lib_a-dtoa.o)
 .text._dtoa_r  0x0800a364     0x1068 d:/gcc-arm-none-eabi/bin/../lib/gcc/arm-none-eabi/4.9.3/../../../../arm-none-eabi/lib/thumb\libc.a(lib_a-dtoa.o)
                0x0800a364                _dtoa_r
 .text._malloc_trim_r
                0x0800b3cc       0xa4 d:/gcc-arm-none-eabi/bin/../lib/gcc/arm-none-eabi/4.9.3/../../../../arm-none-eabi/lib/thumb\libc.a(lib_a-freer.o)
                0x0800b3cc                _malloc_trim_r
 .text._free_r  0x0800b470      0x1b4 d:/gcc-arm-none-eabi/bin/../lib/gcc/arm-none-eabi/4.9.3/../../../../arm-none-eabi/lib/thumb\libc.a(lib_a-freer.o)
                0x0800b470                _free_r
 .text._localeconv_r
                0x0800b624        0x8 d:/gcc-arm-none-eabi/bin/../lib/gcc/arm-none-eabi/4.9.3/../../../../arm-none-eabi/lib/thumb\libc.a(lib_a-locale.o)
                0x0800b624                _localeconv_r
 .text.malloc   0x0800b62c       0x18 d:/gcc-arm-none-eabi/bin/../lib/gcc/arm-none-eabi/4.9.3/../../../../arm-none-eabi/lib/thumb\libc.a(lib_a-malloc.o)
                0x0800b62c                malloc
 .text._malloc_r
                0x0800b644      0x54c d:/gcc-arm-none-eabi/bin/../lib/gcc/arm-none-eabi/4.9.3/../../../../arm-none-eabi/lib/thumb\libc.a(lib_a-mallocr.o)
                0x0800b644                _malloc_r
 .text.memchr   0x0800bb90       0x8c d:/gcc-arm-none-eabi/bin/../lib/gcc/arm-none-eabi/4.9.3/../../../../arm-none-eabi/lib/thumb\libc.a(lib_a-memchr.o)
                0x0800bb90                memchr
 .text.__malloc_lock
                0x0800bc1c        0x4 d:/gcc-arm-none-eabi/bin/../lib/gcc/arm-none-eabi/4.9.3/../../../../arm-none-eabi/lib/thumb\libc.a(lib_a-mlock.o)
                0x0800bc1c                __malloc_lock
 .text.__malloc_unlock
                0x0800bc20        0x4 d:/gcc-arm-none-eabi/bin/../lib/gcc/arm-none-eabi/4.9.3/../../../../arm-none-eabi/lib/thumb\libc.a(lib_a-mlock.o)
                0x0800bc20                __malloc_unlock
 .text._Balloc  0x0800bc24       0x70 d:/gcc-arm-none-eabi/bin/../lib/gcc/arm-none-eabi/4.9.3/../../../../arm-none-eabi/lib/thumb\libc.a(lib_a-mprec.o)
                0x0800bc24                _Balloc
 .text._Bfree   0x0800bc94       0x38 d:/gcc-arm-none-eabi/bin/../lib/gcc/arm-none-eabi/4.9.3/../../../../arm-none-eabi/lib/thumb\libc.a(lib_a-mprec.o)
                0x0800bc94                _Bfree
 .text.__multadd
                0x0800bccc       0x90 d:/gcc-arm-none-eabi/bin/../lib/gcc/arm-none-eabi/4.9.3/../../../../arm-none-eabi/lib/thumb\libc.a(lib_a-mprec.o)
                0x0800bccc                __multadd
 .text.__hi0bits
                0x0800bd5c       0x3c d:/gcc-arm-none-eabi/bin/../lib/gcc/arm-none-eabi/4.9.3/../../../../arm-none-eabi/lib/thumb\libc.a(lib_a-mprec.o)
                0x0800bd5c                __hi0bits
 .text.__lo0bits
                0x0800bd98       0x5c d:/gcc-arm-none-eabi/bin/../lib/gcc/arm-none-eabi/4.9.3/../../../../arm-none-eabi/lib/thumb\libc.a(lib_a-mprec.o)
                0x0800bd98                __lo0bits
 .text.__i2b    0x0800bdf4       0x18 d:/gcc-arm-none-eabi/bin/../lib/gcc/arm-none-eabi/4.9.3/../../../../arm-none-eabi/lib/thumb\libc.a(lib_a-mprec.o)
                0x0800bdf4                __i2b
 .text.__multiply
                0x0800be0c      0x170 d:/gcc-arm-none-eabi/bin/../lib/gcc/arm-none-eabi/4.9.3/../../../../arm-none-eabi/lib/thumb\libc.a(lib_a-mprec.o)
                0x0800be0c                __multiply
 .text.__pow5mult
                0x0800bf7c       0xc8 d:/gcc-arm-none-eabi/bin/../lib/gcc/arm-none-eabi/4.9.3/../../../../arm-none-eabi/lib/thumb\libc.a(lib_a-mprec.o)
                0x0800bf7c                __pow5mult
 .text.__lshift
                0x0800c044       0xc8 d:/gcc-arm-none-eabi/bin/../lib/gcc/arm-none-eabi/4.9.3/../../../../arm-none-eabi/lib/thumb\libc.a(lib_a-mprec.o)
                0x0800c044                __lshift
 .text.__mcmp   0x0800c10c       0x3c d:/gcc-arm-none-eabi/bin/../lib/gcc/arm-none-eabi/4.9.3/../../../../arm-none-eabi/lib/thumb\libc.a(lib_a-mprec.o)
                0x0800c10c                __mcmp
 .text.__mdiff  0x0800c148       0xf0 d:/gcc-arm-none-eabi/bin/../lib/gcc/arm-none-eabi/4.9.3/../../../../arm-none-eabi/lib/thumb\libc.a(lib_a-mprec.o)
                0x0800c148                __mdiff
 .text.__d2b    0x0800c238       0xc0 d:/gcc-arm-none-eabi/bin/../lib/gcc/arm-none-eabi/4.9.3/../../../../arm-none-eabi/lib/thumb\libc.a(lib_a-mprec.o)
                0x0800c238                __d2b
 .text.__fpclassifyd
                0x0800c2f8       0x5c d:/gcc-arm-none-eabi/bin/../lib/gcc/arm-none-eabi/4.9.3/../../../../arm-none-eabi/lib/thumb\libc.a(lib_a-s_fpclassify.o)
                0x0800c2f8                __fpclassifyd
 .text.frexp    0x0800c354       0x74 d:/gcc-arm-none-eabi/bin/../lib/gcc/arm-none-eabi/4.9.3/../../../../arm-none-eabi/lib/thumb\libc.a(lib_a-s_frexp.o)
                0x0800c354                frexp
 .text.strncpy  0x0800c3c8       0x7c d:/gcc-arm-none-eabi/bin/../lib/gcc/arm-none-eabi/4.9.3/../../../../arm-none-eabi/lib/thumb\libc.a(lib_a-strncpy.o)
                0x0800c3c8                strncpy
 .text.__ssputs_r
                0x0800c444       0xe0 d:/gcc-arm-none-eabi/bin/../lib/gcc/arm-none-eabi/4.9.3/../../../../arm-none-eabi/lib/thumb\libc.a(lib_a-svfiprintf.o)
                0x0800c444                __ssputs_r
 .text._calloc_r
                0x0800c524       0x64 d:/gcc-arm-none-eabi/bin/../lib/gcc/arm-none-eabi/4.9.3/../../../../arm-none-eabi/lib/thumb\libc.a(lib_a-callocr.o)
                0x0800c524                _calloc_r
 .text.memmove  0x0800c588       0x9c d:/gcc-arm-none-eabi/bin/../lib/gcc/arm-none-eabi/4.9.3/../../../../arm-none-eabi/lib/thumb\libc.a(lib_a-memmove.o)
                0x0800c588                memmove
 .text._realloc_r
                0x0800c624      0x3dc d:/gcc-arm-none-eabi/bin/../lib/gcc/arm-none-eabi/4.9.3/../../../../arm-none-eabi/lib/thumb\libc.a(lib_a-reallocr.o)
                0x0800c624                _realloc_r
                0x0800ca00                . = ALIGN (0x4)
 *(.rodata)
 .rodata        0x0800ca00       0x9c Src/main.o
 .rodata        0x0800ca9c       0x44 FreeRTOS_Source/tasks.o
 .rodata        0x0800cae0       0x30 FreeRTOS_Source/Full/BlockQ.o
 .rodata        0x0800cb10        0x8 FreeRTOS_Source/Full/integer.o
 .rodata        0x0800cb18       0x10 FreeRTOS_Source/Full/PollQ.o
 .rodata        0x0800cb28       0x20 FreeRTOS_Source/Full/semtest.o
 .rodata        0x0800cb48       0x20 FreeRTOS_Source/Full/QPeek.o
 .rodata        0x0800cb68       0x20 FreeRTOS_Source/Full/GenQTest.o
 .rodata        0x0800cb88       0x18 FreeRTOS_Source/Full/recmutex.o
 .rodata        0x0800cba0       0x14 STLibrary/src/stm32f10x_rcc.o
 *(.rodata*)
 .rodata.str1.4
                0x0800cbb4        0x2 d:/gcc-arm-none-eabi/bin/../lib/gcc/arm-none-eabi/4.9.3/../../../../arm-none-eabi/lib/thumb\libc.a(lib_a-impure.o)
                                  0x4 (size before relaxing)
 *fill*         0x0800cbb6        0x2 
 .rodata._svfprintf_r
                0x0800cbb8      0x16c d:/gcc-arm-none-eabi/bin/../lib/gcc/arm-none-eabi/4.9.3/../../../../arm-none-eabi/lib/thumb\libc.a(lib_a-svfprintf.o)
 .rodata.zeroes.6926
                0x0800cd24       0x10 d:/gcc-arm-none-eabi/bin/../lib/gcc/arm-none-eabi/4.9.3/../../../../arm-none-eabi/lib/thumb\libc.a(lib_a-svfprintf.o)
 .rodata.str1.4
                0x0800cd34       0x42 d:/gcc-arm-none-eabi/bin/../lib/gcc/arm-none-eabi/4.9.3/../../../../arm-none-eabi/lib/thumb\libc.a(lib_a-svfprintf.o)
                                 0x44 (size before relaxing)
 *fill*         0x0800cd76        0x2 
 .rodata.blanks.6925
                0x0800cd78       0x10 d:/gcc-arm-none-eabi/bin/../lib/gcc/arm-none-eabi/4.9.3/../../../../arm-none-eabi/lib/thumb\libc.a(lib_a-svfprintf.o)
 .rodata.str1.4
                0x0800cd88       0x10 d:/gcc-arm-none-eabi/bin/../lib/gcc/arm-none-eabi/4.9.3/../../../../arm-none-eabi/lib/thumb\libc.a(lib_a-dtoa.o)
                                 0x14 (size before relaxing)
 .rodata.str1.4
                0x0800cd98        0xc d:/gcc-arm-none-eabi/bin/../lib/gcc/arm-none-eabi/4.9.3/../../../../arm-none-eabi/lib/thumb\libc.a(lib_a-locale.o)
                                 0x14 (size before relaxing)
 *fill*         0x0800cda4        0x4 
 .rodata.__mprec_tens
                0x0800cda8       0xc8 d:/gcc-arm-none-eabi/bin/../lib/gcc/arm-none-eabi/4.9.3/../../../../arm-none-eabi/lib/thumb\libc.a(lib_a-mprec.o)
                0x0800cda8                __mprec_tens
 .rodata.__mprec_bigtens
                0x0800ce70       0x28 d:/gcc-arm-none-eabi/bin/../lib/gcc/arm-none-eabi/4.9.3/../../../../arm-none-eabi/lib/thumb\libc.a(lib_a-mprec.o)
                0x0800ce70                __mprec_bigtens
 .rodata.p05.5305
                0x0800ce98        0xc d:/gcc-arm-none-eabi/bin/../lib/gcc/arm-none-eabi/4.9.3/../../../../arm-none-eabi/lib/thumb\libc.a(lib_a-mprec.o)
                0x0800cea4                . = ALIGN (0x4)
 *(.glue_7)
 .glue_7        0x0800cea4        0x0 linker stubs
 *(.glue_7t)
 .glue_7t       0x0800cea4        0x0 linker stubs
                0x0800cea4                . = ALIGN (0x4)
 *(.gnu.linkonce.t.*)
 *(.gnu.linkonce.r.*)
                0x0800cea4                . = ALIGN (0x4)
 *(.ARM.extab* .gnu.linkonce.armextab.*)
                0x0800cea4                . = ALIGN (0x4)
 *(.gcc_except_table)
                0x0800cea4                . = ALIGN (0x4)
 *(.vfp11_veneer)
 .vfp11_veneer  0x0800cea4        0x0 linker stubs
                0x0800cea4                . = ALIGN (0x4)
                0x0800cea4                PROVIDE (__ctors_start__, .)
 *(SORT(.ctors.*))
 *(.ctors)
                0x0800cea4                PROVIDE (__ctors_end__, .)
                0x0800cea4                . = ALIGN (0x4)
                0x0800cea4                PROVIDE (__dtors_start__, .)
 *(SORT(.dtors.*))
 *(.dtors)
                0x0800cea4                PROVIDE (__dtors_end__, .)
                0x0800cea4                . = ALIGN (0x4)
 *(.init)
 .init          0x0800cea4        0x4 d:/gcc-arm-none-eabi/bin/../lib/gcc/arm-none-eabi/4.9.3/thumb/crti.o
                0x0800cea4                _init
 .init          0x0800cea8        0x8 d:/gcc-arm-none-eabi/bin/../lib/gcc/arm-none-eabi/4.9.3/thumb/crtn.o
                0x0800ceb0                . = ALIGN (0x4)
                0x0800ceb0                __preinit_array_start = .
 *(.preinit_array)
                0x0800ceb0                . = ALIGN (0x4)
                0x0800ceb0                __preinit_array_end = .
                0x0800ceb0                __init_array_start = .
 *(SORT(.init_array.*))
                0x0800ceb0                . = ALIGN (0x4)
 *(.init_array)
 .init_array    0x0800ceb0        0x4 d:/gcc-arm-none-eabi/bin/../lib/gcc/arm-none-eabi/4.9.3/thumb/crtbegin.o
                0x0800ceb4                . = ALIGN (0x4)
                0x0800ceb4                __init_array_end = .
 *(.fini)
 .fini          0x0800ceb4        0x4 d:/gcc-arm-none-eabi/bin/../lib/gcc/arm-none-eabi/4.9.3/thumb/crti.o
                0x0800ceb4                _fini
 .fini          0x0800ceb8        0x8 d:/gcc-arm-none-eabi/bin/../lib/gcc/arm-none-eabi/4.9.3/thumb/crtn.o
 .fini.__stub   0x0800cec0       0x10 linker stubs
                0x0800ced0                . = ALIGN (0x4)
                0x0800ced0                __fini_array_start = .
 *(.fini_array)
 .fini_array    0x0800ced0        0x4 d:/gcc-arm-none-eabi/bin/../lib/gcc/arm-none-eabi/4.9.3/thumb/crtbegin.o
                0x0800ced4                . = ALIGN (0x4)
 *(SORT(.fini_array.*))
                0x0800ced4                . = ALIGN (0x4)
                0x0800ced4                __fini_array_end = .
                0x0800ced4                _etext = .
                0x0800ced4                _sidata = _etext

.v4_bx          0x0800ced4        0x0
 .v4_bx         0x0800ced4        0x0 linker stubs

.iplt           0x0800ced4        0x0
 .iplt          0x0800ced4        0x0 d:/gcc-arm-none-eabi/bin/../lib/gcc/arm-none-eabi/4.9.3/thumb/crtbegin.o

.rel.dyn        0x0800ced4        0x0
 .rel.iplt      0x0800ced4        0x0 d:/gcc-arm-none-eabi/bin/../lib/gcc/arm-none-eabi/4.9.3/thumb/crtbegin.o

.data           0x20000000      0x4b8 load address 0x0800ced4
                0x20000000                . = ALIGN (0x4)
                0x20000000                _sdata = .
 *(.data)
 .data          0x20000000        0x4 FreeRTOS_Source/tasks.o
 .data          0x20000004        0x4 FreeRTOS_Source/portable/GCC/ARM_CM3/port.o
 .data          0x20000008        0x4 FreeRTOS_Source/portable/MemMang/heap_2.o
 *(.data.*)
 .data.impure_data
                0x2000000c       0x60 d:/gcc-arm-none-eabi/bin/../lib/gcc/arm-none-eabi/4.9.3/../../../../arm-none-eabi/lib/thumb\libc.a(lib_a-impure.o)
 .data._impure_ptr
                0x2000006c        0x4 d:/gcc-arm-none-eabi/bin/../lib/gcc/arm-none-eabi/4.9.3/../../../../arm-none-eabi/lib/thumb\libc.a(lib_a-impure.o)
                0x2000006c                _impure_ptr
 .data.lconv    0x20000070       0x38 d:/gcc-arm-none-eabi/bin/../lib/gcc/arm-none-eabi/4.9.3/../../../../arm-none-eabi/lib/thumb\libc.a(lib_a-locale.o)
 .data.__malloc_av_
                0x200000a8      0x408 d:/gcc-arm-none-eabi/bin/../lib/gcc/arm-none-eabi/4.9.3/../../../../arm-none-eabi/lib/thumb\libc.a(lib_a-mallocr.o)
                0x200000a8                __malloc_av_
 .data.__malloc_trim_threshold
                0x200004b0        0x4 d:/gcc-arm-none-eabi/bin/../lib/gcc/arm-none-eabi/4.9.3/../../../../arm-none-eabi/lib/thumb\libc.a(lib_a-mallocr.o)
                0x200004b0                __malloc_trim_threshold
 .data.__malloc_sbrk_base
                0x200004b4        0x4 d:/gcc-arm-none-eabi/bin/../lib/gcc/arm-none-eabi/4.9.3/../../../../arm-none-eabi/lib/thumb\libc.a(lib_a-mallocr.o)
                0x200004b4                __malloc_sbrk_base
 *(.gnu.linkonce.d.*)
                0x200004b8                . = ALIGN (0x4)
                0x200004b8                _edata = .

.jcr            0x200004b8        0x0 load address 0x0800d38c
 .jcr           0x200004b8        0x0 d:/gcc-arm-none-eabi/bin/../lib/gcc/arm-none-eabi/4.9.3/thumb/crtbegin.o

.igot.plt       0x200004b8        0x0 load address 0x0800d38c
 .igot.plt      0x200004b8        0x0 d:/gcc-arm-none-eabi/bin/../lib/gcc/arm-none-eabi/4.9.3/thumb/crtbegin.o

.bss            0x200004b8     0x2a34 load address 0x0800d38c
                0x200004b8                . = ALIGN (0x4)
                0x200004b8                _sbss = .
 *(.bss)
 .bss           0x200004b8       0x1c d:/gcc-arm-none-eabi/bin/../lib/gcc/arm-none-eabi/4.9.3/thumb/crtbegin.o
 .bss           0x200004d4        0x4 Src/main.o
 .bss           0x200004d8       0x10 Src/timertest.o
                0x200004d8                usMaxJitter
                0x200004dc                ulRunTimeStatsClock
 .bss           0x200004e8      0x104 FreeRTOS_Source/tasks.o
                0x200004e8                pxCurrentTCB
 .bss           0x200005ec       0x20 FreeRTOS_Source/Full/BlockQ.o
 .bss           0x2000060c        0x4 FreeRTOS_Source/Full/integer.o
 .bss           0x20000610        0xc FreeRTOS_Source/Full/PollQ.o
 .bss           0x2000061c       0x14 FreeRTOS_Source/Full/semtest.o
 .bss           0x20000630        0xc FreeRTOS_Source/Full/QPeek.o
 .bss           0x2000063c       0x20 FreeRTOS_Source/Full/GenQTest.o
 .bss           0x2000065c       0x30 FreeRTOS_Source/Full/recmutex.o
 .bss           0x2000068c     0x2814 FreeRTOS_Source/portable/MemMang/heap_2.o
 .bss           0x20002ea0        0x4 Src/syscalls.o
 .bss           0x20002ea4        0x8 STLibrary/src/stm32f10x_rcc.o
 *(.bss.*)
 .bss.__malloc_max_total_mem
                0x20002eac        0x4 d:/gcc-arm-none-eabi/bin/../lib/gcc/arm-none-eabi/4.9.3/../../../../arm-none-eabi/lib/thumb\libc.a(lib_a-mallocr.o)
                0x20002eac                __malloc_max_total_mem
 .bss.__malloc_max_sbrked_mem
                0x20002eb0        0x4 d:/gcc-arm-none-eabi/bin/../lib/gcc/arm-none-eabi/4.9.3/../../../../arm-none-eabi/lib/thumb\libc.a(lib_a-mallocr.o)
                0x20002eb0                __malloc_max_sbrked_mem
 .bss.__malloc_top_pad
                0x20002eb4        0x4 d:/gcc-arm-none-eabi/bin/../lib/gcc/arm-none-eabi/4.9.3/../../../../arm-none-eabi/lib/thumb\libc.a(lib_a-mallocr.o)
                0x20002eb4                __malloc_top_pad
 .bss.__malloc_current_mallinfo
                0x20002eb8       0x28 d:/gcc-arm-none-eabi/bin/../lib/gcc/arm-none-eabi/4.9.3/../../../../arm-none-eabi/lib/thumb\libc.a(lib_a-mallocr.o)
                0x20002eb8                __malloc_current_mallinfo
 *(.gnu.linkonce.b.*)
 *(COMMON)
 COMMON         0x20002ee0        0xc FreeRTOS_Source/Full/QPeek.o
                0x20002ee0                xHighPriorityTask
                0x20002ee4                xMediumPriorityTask
                0x20002ee8                xHighestPriorityTask
                0x20002eec                . = ALIGN (0x4)
                0x20002eec                _ebss = .
                0x20002eec                PROVIDE (end, _ebss)
                0x20002eec                PROVIDE (_end, _ebss)

._heap          0x20002eec        0x4 load address 0x0800fdc0
                0x20002eec                . = ALIGN (0x4)
                0x20002eec                _heap_start = .
                0x20002ef0                . = (. + 0x4)
 *fill*         0x20002eec        0x4 
                0x20002eec                PROVIDE (__heap_start, _heap_start)
                0x2000ff00                PROVIDE (__heap_end, (_estack - _sys_stack_size))

.b1text
 *(.b1text)
 *(.b1rodata)
 *(.b1rodata*)

.eb0text
 *(.eb0text)
 *(.eb0rodata)
 *(.eb0rodata*)

.eb1text
 *(.eb1text)
 *(.eb1rodata)
 *(.eb1rodata*)

.eb2text
 *(.eb2text)
 *(.eb2rodata)
 *(.eb2rodata*)

.eb3text
 *(.eb3text)
 *(.eb3rodata)
 *(.eb3rodata*)

/DISCARD/
 libc.a(*)
 libm.a(*)
 libgcc.a(*)
 *(.note.GNU-stack)

.stab
 *(.stab)

.stabstr
 *(.stabstr)

.stab.excl
 *(.stab.excl)

.stab.exclstr
 *(.stab.exclstr)

.stab.index
 *(.stab.index)

.stab.indexstr
 *(.stab.indexstr)

.comment        0x00000000       0x6a
 *(.comment)
 .comment       0x00000000       0x6a d:/gcc-arm-none-eabi/bin/../lib/gcc/arm-none-eabi/4.9.3/thumb/crtbegin.o
                                 0x6b (size before relaxing)
 .comment       0x0000006a       0x6b Src/main.o
 .comment       0x0000006a       0x6b Src/stm32f10x_it.o
 .comment       0x0000006a       0x6b Src/Stm32l_level.o
 .comment       0x0000006a       0x6b Src/Lcd3310.o
 .comment       0x0000006a       0x6b Src/StringsConv.o
 .comment       0x0000006a       0x6b Src/ParTest.o
 .comment       0x0000006a       0x6b Src/timertest.o
 .comment       0x0000006a       0x6b FreeRTOS_Source/croutine.o
 .comment       0x0000006a       0x6b FreeRTOS_Source/event_groups.o
 .comment       0x0000006a       0x6b FreeRTOS_Source/list.o
 .comment       0x0000006a       0x6b FreeRTOS_Source/queue.o
 .comment       0x0000006a       0x6b FreeRTOS_Source/tasks.o
 .comment       0x0000006a       0x6b FreeRTOS_Source/timers.o
 .comment       0x0000006a       0x6b FreeRTOS_Source/portable/GCC/ARM_CM3/port.o
 .comment       0x0000006a       0x6b FreeRTOS_Source/Full/BlockQ.o
 .comment       0x0000006a       0x6b FreeRTOS_Source/Full/comtest.o
 .comment       0x0000006a       0x6b FreeRTOS_Source/Full/death.o
 .comment       0x0000006a       0x6b FreeRTOS_Source/Full/dynamic.o
 .comment       0x0000006a       0x6b FreeRTOS_Source/Full/events.o
 .comment       0x0000006a       0x6b FreeRTOS_Source/Full/flash.o
 .comment       0x0000006a       0x6b FreeRTOS_Source/Full/integer.o
 .comment       0x0000006a       0x6b FreeRTOS_Source/Full/PollQ.o
 .comment       0x0000006a       0x6b FreeRTOS_Source/Full/print.o
 .comment       0x0000006a       0x6b FreeRTOS_Source/Full/semtest.o
 .comment       0x0000006a       0x6b FreeRTOS_Source/Full/QPeek.o
 .comment       0x0000006a       0x6b FreeRTOS_Source/Full/GenQTest.o
 .comment       0x0000006a       0x6b FreeRTOS_Source/Full/recmutex.o
 .comment       0x0000006a       0x6b FreeRTOS_Source/portable/MemMang/heap_2.o
 .comment       0x0000006a       0x6b Src/syscalls.o
 .comment       0x0000006a       0x6b STLibrary/src/stm32f10x_gpio.o
 .comment       0x0000006a       0x6b STLibrary/src/stm32f10x_nvic.o
 .comment       0x0000006a       0x6b STLibrary/src/stm32f10x_rcc.o
 .comment       0x0000006a       0x6b STLibrary/src/stm32f10x_systick.o
 .comment       0x0000006a       0x6b STLibrary/src/stm32f10x_tim.o
 .comment       0x0000006a       0x6b STLibrary/src/stm32f10x_vector.o
 .comment       0x0000006a       0x6b d:/gcc-arm-none-eabi/bin/../lib/gcc/arm-none-eabi/4.9.3/../../../../arm-none-eabi/lib/thumb\libc.a(lib_a-exit.o)
 .comment       0x0000006a       0x6b d:/gcc-arm-none-eabi/bin/../lib/gcc/arm-none-eabi/4.9.3/../../../../arm-none-eabi/lib/thumb\libc.a(lib_a-impure.o)
 .comment       0x0000006a       0x6b d:/gcc-arm-none-eabi/bin/../lib/gcc/arm-none-eabi/4.9.3/../../../../arm-none-eabi/lib/thumb\libc.a(lib_a-init.o)
 .comment       0x0000006a       0x6b d:/gcc-arm-none-eabi/bin/../lib/gcc/arm-none-eabi/4.9.3/../../../../arm-none-eabi/lib/thumb\libc.a(lib_a-memcmp.o)
 .comment       0x0000006a       0x6b d:/gcc-arm-none-eabi/bin/../lib/gcc/arm-none-eabi/4.9.3/../../../../arm-none-eabi/lib/thumb\libc.a(lib_a-memcpy.o)
 .comment       0x0000006a       0x6b d:/gcc-arm-none-eabi/bin/../lib/gcc/arm-none-eabi/4.9.3/../../../../arm-none-eabi/lib/thumb\libc.a(lib_a-memset.o)
 .comment       0x0000006a       0x6b d:/gcc-arm-none-eabi/bin/../lib/gcc/arm-none-eabi/4.9.3/../../../../arm-none-eabi/lib/thumb\libc.a(lib_a-sprintf.o)
 .comment       0x0000006a       0x6b d:/gcc-arm-none-eabi/bin/../lib/gcc/arm-none-eabi/4.9.3/../../../../arm-none-eabi/lib/thumb\libc.a(lib_a-strcpy.o)
 .comment       0x0000006a       0x6b d:/gcc-arm-none-eabi/bin/../lib/gcc/arm-none-eabi/4.9.3/../../../../arm-none-eabi/lib/thumb\libc.a(lib_a-strlen.o)
 .comment       0x0000006a       0x6b d:/gcc-arm-none-eabi/bin/../lib/gcc/arm-none-eabi/4.9.3/../../../../arm-none-eabi/lib/thumb\libc.a(lib_a-svfprintf.o)
 .comment       0x0000006a       0x6b d:/gcc-arm-none-eabi/bin/../lib/gcc/arm-none-eabi/4.9.3/../../../../arm-none-eabi/lib/thumb\libc.a(lib_a-__call_atexit.o)
 .comment       0x0000006a       0x6b d:/gcc-arm-none-eabi/bin/../lib/gcc/arm-none-eabi/4.9.3/../../../../arm-none-eabi/lib/thumb\libc.a(lib_a-dtoa.o)
 .comment       0x0000006a       0x6b d:/gcc-arm-none-eabi/bin/../lib/gcc/arm-none-eabi/4.9.3/../../../../arm-none-eabi/lib/thumb\libc.a(lib_a-freer.o)
 .comment       0x0000006a       0x6b d:/gcc-arm-none-eabi/bin/../lib/gcc/arm-none-eabi/4.9.3/../../../../arm-none-eabi/lib/thumb\libc.a(lib_a-locale.o)
 .comment       0x0000006a       0x6b d:/gcc-arm-none-eabi/bin/../lib/gcc/arm-none-eabi/4.9.3/../../../../arm-none-eabi/lib/thumb\libc.a(lib_a-malloc.o)
 .comment       0x0000006a       0x6b d:/gcc-arm-none-eabi/bin/../lib/gcc/arm-none-eabi/4.9.3/../../../../arm-none-eabi/lib/thumb\libc.a(lib_a-mallocr.o)
 .comment       0x0000006a       0x6b d:/gcc-arm-none-eabi/bin/../lib/gcc/arm-none-eabi/4.9.3/../../../../arm-none-eabi/lib/thumb\libc.a(lib_a-memchr.o)
 .comment       0x0000006a       0x6b d:/gcc-arm-none-eabi/bin/../lib/gcc/arm-none-eabi/4.9.3/../../../../arm-none-eabi/lib/thumb\libc.a(lib_a-mlock.o)
 .comment       0x0000006a       0x6b d:/gcc-arm-none-eabi/bin/../lib/gcc/arm-none-eabi/4.9.3/../../../../arm-none-eabi/lib/thumb\libc.a(lib_a-mprec.o)
 .comment       0x0000006a       0x6b d:/gcc-arm-none-eabi/bin/../lib/gcc/arm-none-eabi/4.9.3/../../../../arm-none-eabi/lib/thumb\libc.a(lib_a-s_fpclassify.o)
 .comment       0x0000006a       0x6b d:/gcc-arm-none-eabi/bin/../lib/gcc/arm-none-eabi/4.9.3/../../../../arm-none-eabi/lib/thumb\libc.a(lib_a-s_frexp.o)
 .comment       0x0000006a       0x6b d:/gcc-arm-none-eabi/bin/../lib/gcc/arm-none-eabi/4.9.3/../../../../arm-none-eabi/lib/thumb\libc.a(lib_a-strncpy.o)
 .comment       0x0000006a       0x6b d:/gcc-arm-none-eabi/bin/../lib/gcc/arm-none-eabi/4.9.3/../../../../arm-none-eabi/lib/thumb\libc.a(lib_a-svfiprintf.o)
 .comment       0x0000006a       0x6b d:/gcc-arm-none-eabi/bin/../lib/gcc/arm-none-eabi/4.9.3/../../../../arm-none-eabi/lib/thumb\libc.a(lib_a-callocr.o)
 .comment       0x0000006a       0x6b d:/gcc-arm-none-eabi/bin/../lib/gcc/arm-none-eabi/4.9.3/../../../../arm-none-eabi/lib/thumb\libc.a(lib_a-memmove.o)
 .comment       0x0000006a       0x6b d:/gcc-arm-none-eabi/bin/../lib/gcc/arm-none-eabi/4.9.3/../../../../arm-none-eabi/lib/thumb\libc.a(lib_a-reallocr.o)
 .comment       0x0000006a       0x6b d:/gcc-arm-none-eabi/bin/../lib/gcc/arm-none-eabi/4.9.3/thumb\libgcc.a(bpabi.o)
 .comment       0x0000006a       0x6b d:/gcc-arm-none-eabi/bin/../lib/gcc/arm-none-eabi/4.9.3/thumb\libgcc.a(_muldi3.o)
 .comment       0x0000006a       0x6b d:/gcc-arm-none-eabi/bin/../lib/gcc/arm-none-eabi/4.9.3/thumb\libgcc.a(_divdi3.o)
 .comment       0x0000006a       0x6b d:/gcc-arm-none-eabi/bin/../lib/gcc/arm-none-eabi/4.9.3/thumb\libgcc.a(_udivdi3.o)
 .comment       0x0000006a       0x6b d:/gcc-arm-none-eabi/bin/../lib/gcc/arm-none-eabi/4.9.3/thumb/crtend.o

.debug
 *(.debug)

.line
 *(.line)

.debug_srcinfo
 *(.debug_srcinfo)

.debug_sfnames
 *(.debug_sfnames)

.debug_aranges  0x00000000      0xb08
 *(.debug_aranges)
 .debug_aranges
                0x00000000       0x20 d:/gcc-arm-none-eabi/bin/../lib/gcc/arm-none-eabi/4.9.3/../../../../arm-none-eabi/lib/thumb/crt0.o
 .debug_aranges
                0x00000020       0x20 Src/main.o
 .debug_aranges
                0x00000040       0x20 Src/stm32f10x_it.o
 .debug_aranges
                0x00000060       0x20 Src/Stm32l_level.o
 .debug_aranges
                0x00000080       0x20 Src/Lcd3310.o
 .debug_aranges
                0x000000a0       0x20 Src/StringsConv.o
 .debug_aranges
                0x000000c0       0x20 Src/ParTest.o
 .debug_aranges
                0x000000e0       0x20 Src/timertest.o
 .debug_aranges
                0x00000100       0x18 FreeRTOS_Source/croutine.o
 .debug_aranges
                0x00000118       0x20 FreeRTOS_Source/event_groups.o
 .debug_aranges
                0x00000138       0x20 FreeRTOS_Source/list.o
 .debug_aranges
                0x00000158       0x20 FreeRTOS_Source/queue.o
 .debug_aranges
                0x00000178       0x20 FreeRTOS_Source/tasks.o
 .debug_aranges
                0x00000198       0x18 FreeRTOS_Source/timers.o
 .debug_aranges
                0x000001b0       0x20 FreeRTOS_Source/portable/GCC/ARM_CM3/port.o
 .debug_aranges
                0x000001d0       0x20 FreeRTOS_Source/Full/BlockQ.o
 .debug_aranges
                0x000001f0       0x20 FreeRTOS_Source/Full/comtest.o
 .debug_aranges
                0x00000210       0x20 FreeRTOS_Source/Full/death.o
 .debug_aranges
                0x00000230       0x20 FreeRTOS_Source/Full/dynamic.o
 .debug_aranges
                0x00000250       0x20 FreeRTOS_Source/Full/events.o
 .debug_aranges
                0x00000270       0x20 FreeRTOS_Source/Full/flash.o
 .debug_aranges
                0x00000290       0x20 FreeRTOS_Source/Full/integer.o
 .debug_aranges
                0x000002b0       0x20 FreeRTOS_Source/Full/PollQ.o
 .debug_aranges
                0x000002d0       0x20 FreeRTOS_Source/Full/print.o
 .debug_aranges
                0x000002f0       0x20 FreeRTOS_Source/Full/semtest.o
 .debug_aranges
                0x00000310       0x20 FreeRTOS_Source/Full/QPeek.o
 .debug_aranges
                0x00000330       0x20 FreeRTOS_Source/Full/GenQTest.o
 .debug_aranges
                0x00000350       0x20 FreeRTOS_Source/Full/recmutex.o
 .debug_aranges
                0x00000370       0x20 FreeRTOS_Source/portable/MemMang/heap_2.o
 .debug_aranges
                0x00000390       0x20 Src/syscalls.o
 .debug_aranges
                0x000003b0       0x20 STLibrary/src/stm32f10x_gpio.o
 .debug_aranges
                0x000003d0       0x20 STLibrary/src/stm32f10x_nvic.o
 .debug_aranges
                0x000003f0       0x20 STLibrary/src/stm32f10x_rcc.o
 .debug_aranges
                0x00000410       0x20 STLibrary/src/stm32f10x_systick.o
 .debug_aranges
                0x00000430       0x20 STLibrary/src/stm32f10x_tim.o
 .debug_aranges
                0x00000450       0x20 STLibrary/src/cortexm3_macro.o
 .debug_aranges
                0x00000470       0x20 STLibrary/src/stm32f10x_vector.o
 .debug_aranges
                0x00000490       0x20 d:/gcc-arm-none-eabi/bin/../lib/gcc/arm-none-eabi/4.9.3/thumb\libgcc.a(_arm_addsubsf3.o)
 .debug_aranges
                0x000004b0       0x20 d:/gcc-arm-none-eabi/bin/../lib/gcc/arm-none-eabi/4.9.3/thumb\libgcc.a(_arm_muldivsf3.o)
 .debug_aranges
                0x000004d0       0x20 d:/gcc-arm-none-eabi/bin/../lib/gcc/arm-none-eabi/4.9.3/thumb\libgcc.a(_arm_fixunssfsi.o)
 .debug_aranges
                0x000004f0       0x20 d:/gcc-arm-none-eabi/bin/../lib/gcc/arm-none-eabi/4.9.3/../../../../arm-none-eabi/lib/thumb\libc.a(lib_a-exit.o)
 .debug_aranges
                0x00000510       0x18 d:/gcc-arm-none-eabi/bin/../lib/gcc/arm-none-eabi/4.9.3/../../../../arm-none-eabi/lib/thumb\libc.a(lib_a-impure.o)
 .debug_aranges
                0x00000528       0x20 d:/gcc-arm-none-eabi/bin/../lib/gcc/arm-none-eabi/4.9.3/../../../../arm-none-eabi/lib/thumb\libc.a(lib_a-init.o)
 .debug_aranges
                0x00000548       0x20 d:/gcc-arm-none-eabi/bin/../lib/gcc/arm-none-eabi/4.9.3/../../../../arm-none-eabi/lib/thumb\libc.a(lib_a-memcmp.o)
 .debug_aranges
                0x00000568       0x20 d:/gcc-arm-none-eabi/bin/../lib/gcc/arm-none-eabi/4.9.3/../../../../arm-none-eabi/lib/thumb\libc.a(lib_a-memcpy.o)
 .debug_aranges
                0x00000588       0x20 d:/gcc-arm-none-eabi/bin/../lib/gcc/arm-none-eabi/4.9.3/../../../../arm-none-eabi/lib/thumb\libc.a(lib_a-memset.o)
 .debug_aranges
                0x000005a8       0x28 d:/gcc-arm-none-eabi/bin/../lib/gcc/arm-none-eabi/4.9.3/../../../../arm-none-eabi/lib/thumb\libc.a(lib_a-sprintf.o)
 .debug_aranges
                0x000005d0       0x20 d:/gcc-arm-none-eabi/bin/../lib/gcc/arm-none-eabi/4.9.3/../../../../arm-none-eabi/lib/thumb\libc.a(lib_a-strcpy.o)
 .debug_aranges
                0x000005f0       0x20 d:/gcc-arm-none-eabi/bin/../lib/gcc/arm-none-eabi/4.9.3/../../../../arm-none-eabi/lib/thumb\libc.a(lib_a-strlen.o)
 .debug_aranges
                0x00000610       0x20 d:/gcc-arm-none-eabi/bin/../lib/gcc/arm-none-eabi/4.9.3/../../../../arm-none-eabi/lib/thumb\libc.a(lib_a-svfprintf.o)
 .debug_aranges
                0x00000630       0x20 d:/gcc-arm-none-eabi/bin/../lib/gcc/arm-none-eabi/4.9.3/../../../../arm-none-eabi/lib/thumb\libc.a(lib_a-__call_atexit.o)
 .debug_aranges
                0x00000650       0x28 d:/gcc-arm-none-eabi/bin/../lib/gcc/arm-none-eabi/4.9.3/../../../../arm-none-eabi/lib/thumb\libc.a(lib_a-dtoa.o)
 .debug_aranges
                0x00000678       0x28 d:/gcc-arm-none-eabi/bin/../lib/gcc/arm-none-eabi/4.9.3/../../../../arm-none-eabi/lib/thumb\libc.a(lib_a-freer.o)
 .debug_aranges
                0x000006a0       0x58 d:/gcc-arm-none-eabi/bin/../lib/gcc/arm-none-eabi/4.9.3/../../../../arm-none-eabi/lib/thumb\libc.a(lib_a-locale.o)
 .debug_aranges
                0x000006f8       0x28 d:/gcc-arm-none-eabi/bin/../lib/gcc/arm-none-eabi/4.9.3/../../../../arm-none-eabi/lib/thumb\libc.a(lib_a-malloc.o)
 .debug_aranges
                0x00000720       0x20 d:/gcc-arm-none-eabi/bin/../lib/gcc/arm-none-eabi/4.9.3/../../../../arm-none-eabi/lib/thumb\libc.a(lib_a-mallocr.o)
 .debug_aranges
                0x00000740       0x20 d:/gcc-arm-none-eabi/bin/../lib/gcc/arm-none-eabi/4.9.3/../../../../arm-none-eabi/lib/thumb\libc.a(lib_a-memchr.o)
 .debug_aranges
                0x00000760       0x28 d:/gcc-arm-none-eabi/bin/../lib/gcc/arm-none-eabi/4.9.3/../../../../arm-none-eabi/lib/thumb\libc.a(lib_a-mlock.o)
 .debug_aranges
                0x00000788       0xb0 d:/gcc-arm-none-eabi/bin/../lib/gcc/arm-none-eabi/4.9.3/../../../../arm-none-eabi/lib/thumb\libc.a(lib_a-mprec.o)
 .debug_aranges
                0x00000838       0x20 d:/gcc-arm-none-eabi/bin/../lib/gcc/arm-none-eabi/4.9.3/../../../../arm-none-eabi/lib/thumb\libc.a(lib_a-s_fpclassify.o)
 .debug_aranges
                0x00000858       0x20 d:/gcc-arm-none-eabi/bin/../lib/gcc/arm-none-eabi/4.9.3/../../../../arm-none-eabi/lib/thumb\libc.a(lib_a-s_frexp.o)
 .debug_aranges
                0x00000878       0x20 d:/gcc-arm-none-eabi/bin/../lib/gcc/arm-none-eabi/4.9.3/../../../../arm-none-eabi/lib/thumb\libc.a(lib_a-strcmp.o)
 .debug_aranges
                0x00000898       0x20 d:/gcc-arm-none-eabi/bin/../lib/gcc/arm-none-eabi/4.9.3/../../../../arm-none-eabi/lib/thumb\libc.a(lib_a-strncpy.o)
 .debug_aranges
                0x000008b8       0x30 d:/gcc-arm-none-eabi/bin/../lib/gcc/arm-none-eabi/4.9.3/../../../../arm-none-eabi/lib/thumb\libc.a(lib_a-svfiprintf.o)
 .debug_aranges
                0x000008e8       0x20 d:/gcc-arm-none-eabi/bin/../lib/gcc/arm-none-eabi/4.9.3/../../../../arm-none-eabi/lib/thumb\libc.a(lib_a-callocr.o)
 .debug_aranges
                0x00000908       0x20 d:/gcc-arm-none-eabi/bin/../lib/gcc/arm-none-eabi/4.9.3/../../../../arm-none-eabi/lib/thumb\libc.a(lib_a-memmove.o)
 .debug_aranges
                0x00000928       0x20 d:/gcc-arm-none-eabi/bin/../lib/gcc/arm-none-eabi/4.9.3/../../../../arm-none-eabi/lib/thumb\libc.a(lib_a-reallocr.o)
 .debug_aranges
                0x00000948       0x20 d:/gcc-arm-none-eabi/bin/../lib/gcc/arm-none-eabi/4.9.3/thumb\libgcc.a(_udivsi3.o)
 .debug_aranges
                0x00000968       0x20 d:/gcc-arm-none-eabi/bin/../lib/gcc/arm-none-eabi/4.9.3/thumb\libgcc.a(_divsi3.o)
 .debug_aranges
                0x00000988       0x20 d:/gcc-arm-none-eabi/bin/../lib/gcc/arm-none-eabi/4.9.3/thumb\libgcc.a(_dvmd_tls.o)
 .debug_aranges
                0x000009a8       0x20 d:/gcc-arm-none-eabi/bin/../lib/gcc/arm-none-eabi/4.9.3/thumb\libgcc.a(_arm_addsubdf3.o)
 .debug_aranges
                0x000009c8       0x20 d:/gcc-arm-none-eabi/bin/../lib/gcc/arm-none-eabi/4.9.3/thumb\libgcc.a(_arm_muldivdf3.o)
 .debug_aranges
                0x000009e8       0x20 d:/gcc-arm-none-eabi/bin/../lib/gcc/arm-none-eabi/4.9.3/thumb\libgcc.a(_arm_cmpdf2.o)
 .debug_aranges
                0x00000a08       0x20 d:/gcc-arm-none-eabi/bin/../lib/gcc/arm-none-eabi/4.9.3/thumb\libgcc.a(_arm_fixdfsi.o)
 .debug_aranges
                0x00000a28       0x20 d:/gcc-arm-none-eabi/bin/../lib/gcc/arm-none-eabi/4.9.3/thumb\libgcc.a(_aeabi_uldivmod.o)
 .debug_aranges
                0x00000a48       0x20 d:/gcc-arm-none-eabi/bin/../lib/gcc/arm-none-eabi/4.9.3/thumb\libgcc.a(bpabi.o)
 .debug_aranges
                0x00000a68       0x20 d:/gcc-arm-none-eabi/bin/../lib/gcc/arm-none-eabi/4.9.3/thumb\libgcc.a(_muldi3.o)
 .debug_aranges
                0x00000a88       0x20 d:/gcc-arm-none-eabi/bin/../lib/gcc/arm-none-eabi/4.9.3/thumb\libgcc.a(_divdi3.o)
 .debug_aranges
                0x00000aa8       0x20 d:/gcc-arm-none-eabi/bin/../lib/gcc/arm-none-eabi/4.9.3/thumb\libgcc.a(_udivdi3.o)
 .debug_aranges
                0x00000ac8       0x20 d:/gcc-arm-none-eabi/bin/../lib/gcc/arm-none-eabi/4.9.3/thumb\libgcc.a(_clzdi2.o)
 .debug_aranges
                0x00000ae8       0x20 d:/gcc-arm-none-eabi/bin/../lib/gcc/arm-none-eabi/4.9.3/thumb\libgcc.a(_clzsi2.o)

.debug_pubnames
 *(.debug_pubnames)

.debug_info     0x00000000    0x176b8
 *(.debug_info .gnu.linkonce.wi.*)
 .debug_info    0x00000000       0xce d:/gcc-arm-none-eabi/bin/../lib/gcc/arm-none-eabi/4.9.3/../../../../arm-none-eabi/lib/thumb/crt0.o
 .debug_info    0x000000ce      0x2f8 Src/main.o
 .debug_info    0x000003c6      0x3a7 Src/stm32f10x_it.o
 .debug_info    0x0000076d      0x326 Src/Stm32l_level.o
 .debug_info    0x00000a93      0x41b Src/Lcd3310.o
 .debug_info    0x00000eae      0x3bf Src/StringsConv.o
 .debug_info    0x0000126d      0x1ae Src/ParTest.o
 .debug_info    0x0000141b      0x43b Src/timertest.o
 .debug_info    0x00001856       0x72 FreeRTOS_Source/croutine.o
 .debug_info    0x000018c8      0x65e FreeRTOS_Source/event_groups.o
 .debug_info    0x00001f26      0x28f FreeRTOS_Source/list.o
 .debug_info    0x000021b5      0xad7 FreeRTOS_Source/queue.o
 .debug_info    0x00002c8c     0x169a FreeRTOS_Source/tasks.o
 .debug_info    0x00004326       0x72 FreeRTOS_Source/timers.o
 .debug_info    0x00004398      0x238 FreeRTOS_Source/portable/GCC/ARM_CM3/port.o
 .debug_info    0x000045d0      0x334 FreeRTOS_Source/Full/BlockQ.o
 .debug_info    0x00004904      0x207 FreeRTOS_Source/Full/comtest.o
 .debug_info    0x00004b0b      0x24d FreeRTOS_Source/Full/death.o
 .debug_info    0x00004d58      0x338 FreeRTOS_Source/Full/dynamic.o
 .debug_info    0x00005090      0x290 FreeRTOS_Source/Full/events.o
 .debug_info    0x00005320      0x154 FreeRTOS_Source/Full/flash.o
 .debug_info    0x00005474      0x189 FreeRTOS_Source/Full/integer.o
 .debug_info    0x000055fd      0x215 FreeRTOS_Source/Full/PollQ.o
 .debug_info    0x00005812      0x179 FreeRTOS_Source/Full/print.o
 .debug_info    0x0000598b      0x289 FreeRTOS_Source/Full/semtest.o
 .debug_info    0x00005c14      0x29b FreeRTOS_Source/Full/QPeek.o
 .debug_info    0x00005eaf      0x330 FreeRTOS_Source/Full/GenQTest.o
 .debug_info    0x000061df      0x279 FreeRTOS_Source/Full/recmutex.o
 .debug_info    0x00006458      0x2dc FreeRTOS_Source/portable/MemMang/heap_2.o
 .debug_info    0x00006734      0xa90 Src/syscalls.o
 .debug_info    0x000071c4      0x63a STLibrary/src/stm32f10x_gpio.o
 .debug_info    0x000077fe      0x8a7 STLibrary/src/stm32f10x_nvic.o
 .debug_info    0x000080a5      0x848 STLibrary/src/stm32f10x_rcc.o
 .debug_info    0x000088ed      0x209 STLibrary/src/stm32f10x_systick.o
 .debug_info    0x00008af6     0x1bb9 STLibrary/src/stm32f10x_tim.o
 .debug_info    0x0000a6af       0x72 STLibrary/src/cortexm3_macro.o
 .debug_info    0x0000a721       0xd7 STLibrary/src/stm32f10x_vector.o
 .debug_info    0x0000a7f8       0xce d:/gcc-arm-none-eabi/bin/../lib/gcc/arm-none-eabi/4.9.3/thumb\libgcc.a(_arm_addsubsf3.o)
 .debug_info    0x0000a8c6       0xce d:/gcc-arm-none-eabi/bin/../lib/gcc/arm-none-eabi/4.9.3/thumb\libgcc.a(_arm_muldivsf3.o)
 .debug_info    0x0000a994       0xce d:/gcc-arm-none-eabi/bin/../lib/gcc/arm-none-eabi/4.9.3/thumb\libgcc.a(_arm_fixunssfsi.o)
 .debug_info    0x0000aa62      0x78c d:/gcc-arm-none-eabi/bin/../lib/gcc/arm-none-eabi/4.9.3/../../../../arm-none-eabi/lib/thumb\libc.a(lib_a-exit.o)
 .debug_info    0x0000b1ee      0x7cf d:/gcc-arm-none-eabi/bin/../lib/gcc/arm-none-eabi/4.9.3/../../../../arm-none-eabi/lib/thumb\libc.a(lib_a-impure.o)
 .debug_info    0x0000b9bd      0x101 d:/gcc-arm-none-eabi/bin/../lib/gcc/arm-none-eabi/4.9.3/../../../../arm-none-eabi/lib/thumb\libc.a(lib_a-init.o)
 .debug_info    0x0000babe      0x10f d:/gcc-arm-none-eabi/bin/../lib/gcc/arm-none-eabi/4.9.3/../../../../arm-none-eabi/lib/thumb\libc.a(lib_a-memcmp.o)
 .debug_info    0x0000bbcd      0x12d d:/gcc-arm-none-eabi/bin/../lib/gcc/arm-none-eabi/4.9.3/../../../../arm-none-eabi/lib/thumb\libc.a(lib_a-memcpy.o)
 .debug_info    0x0000bcfa      0x113 d:/gcc-arm-none-eabi/bin/../lib/gcc/arm-none-eabi/4.9.3/../../../../arm-none-eabi/lib/thumb\libc.a(lib_a-memset.o)
 .debug_info    0x0000be0d      0x899 d:/gcc-arm-none-eabi/bin/../lib/gcc/arm-none-eabi/4.9.3/../../../../arm-none-eabi/lib/thumb\libc.a(lib_a-sprintf.o)
 .debug_info    0x0000c6a6       0xb9 d:/gcc-arm-none-eabi/bin/../lib/gcc/arm-none-eabi/4.9.3/../../../../arm-none-eabi/lib/thumb\libc.a(lib_a-strcpy.o)
 .debug_info    0x0000c75f       0xd9 d:/gcc-arm-none-eabi/bin/../lib/gcc/arm-none-eabi/4.9.3/../../../../arm-none-eabi/lib/thumb\libc.a(lib_a-strlen.o)
 .debug_info    0x0000c838     0x17a1 d:/gcc-arm-none-eabi/bin/../lib/gcc/arm-none-eabi/4.9.3/../../../../arm-none-eabi/lib/thumb\libc.a(lib_a-svfprintf.o)
 .debug_info    0x0000dfd9      0x208 d:/gcc-arm-none-eabi/bin/../lib/gcc/arm-none-eabi/4.9.3/../../../../arm-none-eabi/lib/thumb\libc.a(lib_a-__call_atexit.o)
 .debug_info    0x0000e1e1     0x124f d:/gcc-arm-none-eabi/bin/../lib/gcc/arm-none-eabi/4.9.3/../../../../arm-none-eabi/lib/thumb\libc.a(lib_a-dtoa.o)
 .debug_info    0x0000f430      0xab2 d:/gcc-arm-none-eabi/bin/../lib/gcc/arm-none-eabi/4.9.3/../../../../arm-none-eabi/lib/thumb\libc.a(lib_a-freer.o)
 .debug_info    0x0000fee2      0xac9 d:/gcc-arm-none-eabi/bin/../lib/gcc/arm-none-eabi/4.9.3/../../../../arm-none-eabi/lib/thumb\libc.a(lib_a-locale.o)
 .debug_info    0x000109ab      0x7bd d:/gcc-arm-none-eabi/bin/../lib/gcc/arm-none-eabi/4.9.3/../../../../arm-none-eabi/lib/thumb\libc.a(lib_a-malloc.o)
 .debug_info    0x00011168      0xc16 d:/gcc-arm-none-eabi/bin/../lib/gcc/arm-none-eabi/4.9.3/../../../../arm-none-eabi/lib/thumb\libc.a(lib_a-mallocr.o)
 .debug_info    0x00011d7e      0x127 d:/gcc-arm-none-eabi/bin/../lib/gcc/arm-none-eabi/4.9.3/../../../../arm-none-eabi/lib/thumb\libc.a(lib_a-memchr.o)
 .debug_info    0x00011ea5      0x75c d:/gcc-arm-none-eabi/bin/../lib/gcc/arm-none-eabi/4.9.3/../../../../arm-none-eabi/lib/thumb\libc.a(lib_a-mlock.o)
 .debug_info    0x00012601     0x15c8 d:/gcc-arm-none-eabi/bin/../lib/gcc/arm-none-eabi/4.9.3/../../../../arm-none-eabi/lib/thumb\libc.a(lib_a-mprec.o)
 .debug_info    0x00013bc9       0xd7 d:/gcc-arm-none-eabi/bin/../lib/gcc/arm-none-eabi/4.9.3/../../../../arm-none-eabi/lib/thumb\libc.a(lib_a-s_fpclassify.o)
 .debug_info    0x00013ca0      0x1bd d:/gcc-arm-none-eabi/bin/../lib/gcc/arm-none-eabi/4.9.3/../../../../arm-none-eabi/lib/thumb\libc.a(lib_a-s_frexp.o)
 .debug_info    0x00013e5d       0xe7 d:/gcc-arm-none-eabi/bin/../lib/gcc/arm-none-eabi/4.9.3/../../../../arm-none-eabi/lib/thumb\libc.a(lib_a-strcmp.o)
 .debug_info    0x00013f44      0x120 d:/gcc-arm-none-eabi/bin/../lib/gcc/arm-none-eabi/4.9.3/../../../../arm-none-eabi/lib/thumb\libc.a(lib_a-strncpy.o)
 .debug_info    0x00014064     0x118a d:/gcc-arm-none-eabi/bin/../lib/gcc/arm-none-eabi/4.9.3/../../../../arm-none-eabi/lib/thumb\libc.a(lib_a-svfiprintf.o)
 .debug_info    0x000151ee      0x88c d:/gcc-arm-none-eabi/bin/../lib/gcc/arm-none-eabi/4.9.3/../../../../arm-none-eabi/lib/thumb\libc.a(lib_a-callocr.o)
 .debug_info    0x00015a7a      0x12d d:/gcc-arm-none-eabi/bin/../lib/gcc/arm-none-eabi/4.9.3/../../../../arm-none-eabi/lib/thumb\libc.a(lib_a-memmove.o)
 .debug_info    0x00015ba7      0xb81 d:/gcc-arm-none-eabi/bin/../lib/gcc/arm-none-eabi/4.9.3/../../../../arm-none-eabi/lib/thumb\libc.a(lib_a-reallocr.o)
 .debug_info    0x00016728       0xcd d:/gcc-arm-none-eabi/bin/../lib/gcc/arm-none-eabi/4.9.3/thumb\libgcc.a(_udivsi3.o)
 .debug_info    0x000167f5       0xcd d:/gcc-arm-none-eabi/bin/../lib/gcc/arm-none-eabi/4.9.3/thumb\libgcc.a(_divsi3.o)
 .debug_info    0x000168c2       0xcd d:/gcc-arm-none-eabi/bin/../lib/gcc/arm-none-eabi/4.9.3/thumb\libgcc.a(_dvmd_tls.o)
 .debug_info    0x0001698f       0xce d:/gcc-arm-none-eabi/bin/../lib/gcc/arm-none-eabi/4.9.3/thumb\libgcc.a(_arm_addsubdf3.o)
 .debug_info    0x00016a5d       0xce d:/gcc-arm-none-eabi/bin/../lib/gcc/arm-none-eabi/4.9.3/thumb\libgcc.a(_arm_muldivdf3.o)
 .debug_info    0x00016b2b       0xce d:/gcc-arm-none-eabi/bin/../lib/gcc/arm-none-eabi/4.9.3/thumb\libgcc.a(_arm_cmpdf2.o)
 .debug_info    0x00016bf9       0xce d:/gcc-arm-none-eabi/bin/../lib/gcc/arm-none-eabi/4.9.3/thumb\libgcc.a(_arm_fixdfsi.o)
 .debug_info    0x00016cc7       0xc9 d:/gcc-arm-none-eabi/bin/../lib/gcc/arm-none-eabi/4.9.3/thumb\libgcc.a(_aeabi_uldivmod.o)
 .debug_info    0x00016d90      0x15a d:/gcc-arm-none-eabi/bin/../lib/gcc/arm-none-eabi/4.9.3/thumb\libgcc.a(bpabi.o)
 .debug_info    0x00016eea      0x1fe d:/gcc-arm-none-eabi/bin/../lib/gcc/arm-none-eabi/4.9.3/thumb\libgcc.a(_muldi3.o)
 .debug_info    0x000170e8      0x268 d:/gcc-arm-none-eabi/bin/../lib/gcc/arm-none-eabi/4.9.3/thumb\libgcc.a(_divdi3.o)
 .debug_info    0x00017350      0x1ce d:/gcc-arm-none-eabi/bin/../lib/gcc/arm-none-eabi/4.9.3/thumb\libgcc.a(_udivdi3.o)
 .debug_info    0x0001751e       0xcd d:/gcc-arm-none-eabi/bin/../lib/gcc/arm-none-eabi/4.9.3/thumb\libgcc.a(_clzdi2.o)
 .debug_info    0x000175eb       0xcd d:/gcc-arm-none-eabi/bin/../lib/gcc/arm-none-eabi/4.9.3/thumb\libgcc.a(_clzsi2.o)

.debug_abbrev   0x00000000     0x50bd
 *(.debug_abbrev)
 .debug_abbrev  0x00000000       0x14 d:/gcc-arm-none-eabi/bin/../lib/gcc/arm-none-eabi/4.9.3/../../../../arm-none-eabi/lib/thumb/crt0.o
 .debug_abbrev  0x00000014      0x19c Src/main.o
 .debug_abbrev  0x000001b0       0x4f Src/stm32f10x_it.o
 .debug_abbrev  0x000001ff      0x16d Src/Stm32l_level.o
 .debug_abbrev  0x0000036c      0x135 Src/Lcd3310.o
 .debug_abbrev  0x000004a1      0x14a Src/StringsConv.o
 .debug_abbrev  0x000005eb       0x9b Src/ParTest.o
 .debug_abbrev  0x00000686       0xef Src/timertest.o
 .debug_abbrev  0x00000775       0x26 FreeRTOS_Source/croutine.o
 .debug_abbrev  0x0000079b      0x137 FreeRTOS_Source/event_groups.o
 .debug_abbrev  0x000008d2       0xbe FreeRTOS_Source/list.o
 .debug_abbrev  0x00000990      0x177 FreeRTOS_Source/queue.o
 .debug_abbrev  0x00000b07      0x287 FreeRTOS_Source/tasks.o
 .debug_abbrev  0x00000d8e       0x26 FreeRTOS_Source/timers.o
 .debug_abbrev  0x00000db4      0x162 FreeRTOS_Source/portable/GCC/ARM_CM3/port.o
 .debug_abbrev  0x00000f16      0x100 FreeRTOS_Source/Full/BlockQ.o
 .debug_abbrev  0x00001016       0xc0 FreeRTOS_Source/Full/comtest.o
 .debug_abbrev  0x000010d6       0xe1 FreeRTOS_Source/Full/death.o
 .debug_abbrev  0x000011b7       0xff FreeRTOS_Source/Full/dynamic.o
 .debug_abbrev  0x000012b6      0x107 FreeRTOS_Source/Full/events.o
 .debug_abbrev  0x000013bd       0x95 FreeRTOS_Source/Full/flash.o
 .debug_abbrev  0x00001452       0xcc FreeRTOS_Source/Full/integer.o
 .debug_abbrev  0x0000151e       0xb1 FreeRTOS_Source/Full/PollQ.o
 .debug_abbrev  0x000015cf       0xbc FreeRTOS_Source/Full/print.o
 .debug_abbrev  0x0000168b      0x100 FreeRTOS_Source/Full/semtest.o
 .debug_abbrev  0x0000178b       0xf8 FreeRTOS_Source/Full/QPeek.o
 .debug_abbrev  0x00001883       0xe7 FreeRTOS_Source/Full/GenQTest.o
 .debug_abbrev  0x0000196a       0xf4 FreeRTOS_Source/Full/recmutex.o
 .debug_abbrev  0x00001a5e      0x152 FreeRTOS_Source/portable/MemMang/heap_2.o
 .debug_abbrev  0x00001bb0      0x19b Src/syscalls.o
 .debug_abbrev  0x00001d4b      0x1d5 STLibrary/src/stm32f10x_gpio.o
 .debug_abbrev  0x00001f20      0x233 STLibrary/src/stm32f10x_nvic.o
 .debug_abbrev  0x00002153      0x1d6 STLibrary/src/stm32f10x_rcc.o
 .debug_abbrev  0x00002329      0x119 STLibrary/src/stm32f10x_systick.o
 .debug_abbrev  0x00002442      0x1b9 STLibrary/src/stm32f10x_tim.o
 .debug_abbrev  0x000025fb       0x14 STLibrary/src/cortexm3_macro.o
 .debug_abbrev  0x0000260f       0xa2 STLibrary/src/stm32f10x_vector.o
 .debug_abbrev  0x000026b1       0x14 d:/gcc-arm-none-eabi/bin/../lib/gcc/arm-none-eabi/4.9.3/thumb\libgcc.a(_arm_addsubsf3.o)
 .debug_abbrev  0x000026c5       0x14 d:/gcc-arm-none-eabi/bin/../lib/gcc/arm-none-eabi/4.9.3/thumb\libgcc.a(_arm_muldivsf3.o)
 .debug_abbrev  0x000026d9       0x14 d:/gcc-arm-none-eabi/bin/../lib/gcc/arm-none-eabi/4.9.3/thumb\libgcc.a(_arm_fixunssfsi.o)
 .debug_abbrev  0x000026ed      0x189 d:/gcc-arm-none-eabi/bin/../lib/gcc/arm-none-eabi/4.9.3/../../../../arm-none-eabi/lib/thumb\libc.a(lib_a-exit.o)
 .debug_abbrev  0x00002876      0x134 d:/gcc-arm-none-eabi/bin/../lib/gcc/arm-none-eabi/4.9.3/../../../../arm-none-eabi/lib/thumb\libc.a(lib_a-impure.o)
 .debug_abbrev  0x000029aa       0xb8 d:/gcc-arm-none-eabi/bin/../lib/gcc/arm-none-eabi/4.9.3/../../../../arm-none-eabi/lib/thumb\libc.a(lib_a-init.o)
 .debug_abbrev  0x00002a62       0x7d d:/gcc-arm-none-eabi/bin/../lib/gcc/arm-none-eabi/4.9.3/../../../../arm-none-eabi/lib/thumb\libc.a(lib_a-memcmp.o)
 .debug_abbrev  0x00002adf       0xa9 d:/gcc-arm-none-eabi/bin/../lib/gcc/arm-none-eabi/4.9.3/../../../../arm-none-eabi/lib/thumb\libc.a(lib_a-memcpy.o)
 .debug_abbrev  0x00002b88       0x9d d:/gcc-arm-none-eabi/bin/../lib/gcc/arm-none-eabi/4.9.3/../../../../arm-none-eabi/lib/thumb\libc.a(lib_a-memset.o)
 .debug_abbrev  0x00002c25      0x1bd d:/gcc-arm-none-eabi/bin/../lib/gcc/arm-none-eabi/4.9.3/../../../../arm-none-eabi/lib/thumb\libc.a(lib_a-sprintf.o)
 .debug_abbrev  0x00002de2       0x70 d:/gcc-arm-none-eabi/bin/../lib/gcc/arm-none-eabi/4.9.3/../../../../arm-none-eabi/lib/thumb\libc.a(lib_a-strcpy.o)
 .debug_abbrev  0x00002e52       0x7f d:/gcc-arm-none-eabi/bin/../lib/gcc/arm-none-eabi/4.9.3/../../../../arm-none-eabi/lib/thumb\libc.a(lib_a-strlen.o)
 .debug_abbrev  0x00002ed1      0x325 d:/gcc-arm-none-eabi/bin/../lib/gcc/arm-none-eabi/4.9.3/../../../../arm-none-eabi/lib/thumb\libc.a(lib_a-svfprintf.o)
 .debug_abbrev  0x000031f6      0x146 d:/gcc-arm-none-eabi/bin/../lib/gcc/arm-none-eabi/4.9.3/../../../../arm-none-eabi/lib/thumb\libc.a(lib_a-__call_atexit.o)
 .debug_abbrev  0x0000333c      0x2a6 d:/gcc-arm-none-eabi/bin/../lib/gcc/arm-none-eabi/4.9.3/../../../../arm-none-eabi/lib/thumb\libc.a(lib_a-dtoa.o)
 .debug_abbrev  0x000035e2      0x201 d:/gcc-arm-none-eabi/bin/../lib/gcc/arm-none-eabi/4.9.3/../../../../arm-none-eabi/lib/thumb\libc.a(lib_a-freer.o)
 .debug_abbrev  0x000037e3      0x24a d:/gcc-arm-none-eabi/bin/../lib/gcc/arm-none-eabi/4.9.3/../../../../arm-none-eabi/lib/thumb\libc.a(lib_a-locale.o)
 .debug_abbrev  0x00003a2d      0x19a d:/gcc-arm-none-eabi/bin/../lib/gcc/arm-none-eabi/4.9.3/../../../../arm-none-eabi/lib/thumb\libc.a(lib_a-malloc.o)
 .debug_abbrev  0x00003bc7      0x23f d:/gcc-arm-none-eabi/bin/../lib/gcc/arm-none-eabi/4.9.3/../../../../arm-none-eabi/lib/thumb\libc.a(lib_a-mallocr.o)
 .debug_abbrev  0x00003e06       0xa9 d:/gcc-arm-none-eabi/bin/../lib/gcc/arm-none-eabi/4.9.3/../../../../arm-none-eabi/lib/thumb\libc.a(lib_a-memchr.o)
 .debug_abbrev  0x00003eaf      0x13d d:/gcc-arm-none-eabi/bin/../lib/gcc/arm-none-eabi/4.9.3/../../../../arm-none-eabi/lib/thumb\libc.a(lib_a-mlock.o)
 .debug_abbrev  0x00003fec      0x35f d:/gcc-arm-none-eabi/bin/../lib/gcc/arm-none-eabi/4.9.3/../../../../arm-none-eabi/lib/thumb\libc.a(lib_a-mprec.o)
 .debug_abbrev  0x0000434b       0x6d d:/gcc-arm-none-eabi/bin/../lib/gcc/arm-none-eabi/4.9.3/../../../../arm-none-eabi/lib/thumb\libc.a(lib_a-s_fpclassify.o)
 .debug_abbrev  0x000043b8      0x110 d:/gcc-arm-none-eabi/bin/../lib/gcc/arm-none-eabi/4.9.3/../../../../arm-none-eabi/lib/thumb\libc.a(lib_a-s_frexp.o)
 .debug_abbrev  0x000044c8       0x14 d:/gcc-arm-none-eabi/bin/../lib/gcc/arm-none-eabi/4.9.3/../../../../arm-none-eabi/lib/thumb\libc.a(lib_a-strcmp.o)
 .debug_abbrev  0x000044dc       0xaa d:/gcc-arm-none-eabi/bin/../lib/gcc/arm-none-eabi/4.9.3/../../../../arm-none-eabi/lib/thumb\libc.a(lib_a-strncpy.o)
 .debug_abbrev  0x00004586      0x2b3 d:/gcc-arm-none-eabi/bin/../lib/gcc/arm-none-eabi/4.9.3/../../../../arm-none-eabi/lib/thumb\libc.a(lib_a-svfiprintf.o)
 .debug_abbrev  0x00004839      0x1a9 d:/gcc-arm-none-eabi/bin/../lib/gcc/arm-none-eabi/4.9.3/../../../../arm-none-eabi/lib/thumb\libc.a(lib_a-callocr.o)
 .debug_abbrev  0x000049e2       0xa9 d:/gcc-arm-none-eabi/bin/../lib/gcc/arm-none-eabi/4.9.3/../../../../arm-none-eabi/lib/thumb\libc.a(lib_a-memmove.o)
 .debug_abbrev  0x00004a8b      0x1e6 d:/gcc-arm-none-eabi/bin/../lib/gcc/arm-none-eabi/4.9.3/../../../../arm-none-eabi/lib/thumb\libc.a(lib_a-reallocr.o)
 .debug_abbrev  0x00004c71       0x14 d:/gcc-arm-none-eabi/bin/../lib/gcc/arm-none-eabi/4.9.3/thumb\libgcc.a(_udivsi3.o)
 .debug_abbrev  0x00004c85       0x14 d:/gcc-arm-none-eabi/bin/../lib/gcc/arm-none-eabi/4.9.3/thumb\libgcc.a(_divsi3.o)
 .debug_abbrev  0x00004c99       0x14 d:/gcc-arm-none-eabi/bin/../lib/gcc/arm-none-eabi/4.9.3/thumb\libgcc.a(_dvmd_tls.o)
 .debug_abbrev  0x00004cad       0x14 d:/gcc-arm-none-eabi/bin/../lib/gcc/arm-none-eabi/4.9.3/thumb\libgcc.a(_arm_addsubdf3.o)
 .debug_abbrev  0x00004cc1       0x14 d:/gcc-arm-none-eabi/bin/../lib/gcc/arm-none-eabi/4.9.3/thumb\libgcc.a(_arm_muldivdf3.o)
 .debug_abbrev  0x00004cd5       0x14 d:/gcc-arm-none-eabi/bin/../lib/gcc/arm-none-eabi/4.9.3/thumb\libgcc.a(_arm_cmpdf2.o)
 .debug_abbrev  0x00004ce9       0x14 d:/gcc-arm-none-eabi/bin/../lib/gcc/arm-none-eabi/4.9.3/thumb\libgcc.a(_arm_fixdfsi.o)
 .debug_abbrev  0x00004cfd       0x14 d:/gcc-arm-none-eabi/bin/../lib/gcc/arm-none-eabi/4.9.3/thumb\libgcc.a(_aeabi_uldivmod.o)
 .debug_abbrev  0x00004d11       0xb5 d:/gcc-arm-none-eabi/bin/../lib/gcc/arm-none-eabi/4.9.3/thumb\libgcc.a(bpabi.o)
 .debug_abbrev  0x00004dc6       0xe0 d:/gcc-arm-none-eabi/bin/../lib/gcc/arm-none-eabi/4.9.3/thumb\libgcc.a(_muldi3.o)
 .debug_abbrev  0x00004ea6      0x128 d:/gcc-arm-none-eabi/bin/../lib/gcc/arm-none-eabi/4.9.3/thumb\libgcc.a(_divdi3.o)
 .debug_abbrev  0x00004fce       0xc7 d:/gcc-arm-none-eabi/bin/../lib/gcc/arm-none-eabi/4.9.3/thumb\libgcc.a(_udivdi3.o)
 .debug_abbrev  0x00005095       0x14 d:/gcc-arm-none-eabi/bin/../lib/gcc/arm-none-eabi/4.9.3/thumb\libgcc.a(_clzdi2.o)
 .debug_abbrev  0x000050a9       0x14 d:/gcc-arm-none-eabi/bin/../lib/gcc/arm-none-eabi/4.9.3/thumb\libgcc.a(_clzsi2.o)

.debug_line     0x00000000     0x85c9
 *(.debug_line)
 .debug_line    0x00000000       0xbd d:/gcc-arm-none-eabi/bin/../lib/gcc/arm-none-eabi/4.9.3/../../../../arm-none-eabi/lib/thumb/crt0.o
 .debug_line    0x000000bd      0x1af Src/main.o
 .debug_line    0x0000026c      0x10f Src/stm32f10x_it.o
 .debug_line    0x0000037b       0xf5 Src/Stm32l_level.o
 .debug_line    0x00000470      0x178 Src/Lcd3310.o
 .debug_line    0x000005e8      0x1af Src/StringsConv.o
 .debug_line    0x00000797       0x7d Src/ParTest.o
 .debug_line    0x00000814       0xc0 Src/timertest.o
 .debug_line    0x000008d4       0x1d FreeRTOS_Source/croutine.o
 .debug_line    0x000008f1      0x1e3 FreeRTOS_Source/event_groups.o
 .debug_line    0x00000ad4      0x155 FreeRTOS_Source/list.o
 .debug_line    0x00000c29      0x364 FreeRTOS_Source/queue.o
 .debug_line    0x00000f8d      0x730 FreeRTOS_Source/tasks.o
 .debug_line    0x000016bd       0x1d FreeRTOS_Source/timers.o
 .debug_line    0x000016da      0x16c FreeRTOS_Source/portable/GCC/ARM_CM3/port.o
 .debug_line    0x00001846      0x17f FreeRTOS_Source/Full/BlockQ.o
 .debug_line    0x000019c5      0x19b FreeRTOS_Source/Full/comtest.o
 .debug_line    0x00001b60      0x163 FreeRTOS_Source/Full/death.o
 .debug_line    0x00001cc3      0x1ae FreeRTOS_Source/Full/dynamic.o
 .debug_line    0x00001e71      0x1a4 FreeRTOS_Source/Full/events.o
 .debug_line    0x00002015      0x14b FreeRTOS_Source/Full/flash.o
 .debug_line    0x00002160       0xe7 FreeRTOS_Source/Full/integer.o
 .debug_line    0x00002247      0x175 FreeRTOS_Source/Full/PollQ.o
 .debug_line    0x000023bc      0x130 FreeRTOS_Source/Full/print.o
 .debug_line    0x000024ec      0x199 FreeRTOS_Source/Full/semtest.o
 .debug_line    0x00002685      0x195 FreeRTOS_Source/Full/QPeek.o
 .debug_line    0x0000281a      0x25a FreeRTOS_Source/Full/GenQTest.o
 .debug_line    0x00002a74      0x1c1 FreeRTOS_Source/Full/recmutex.o
 .debug_line    0x00002c35      0x1c0 FreeRTOS_Source/portable/MemMang/heap_2.o
 .debug_line    0x00002df5      0x14c Src/syscalls.o
 .debug_line    0x00002f41      0x179 STLibrary/src/stm32f10x_gpio.o
 .debug_line    0x000030ba      0x1ba STLibrary/src/stm32f10x_nvic.o
 .debug_line    0x00003274      0x1c2 STLibrary/src/stm32f10x_rcc.o
 .debug_line    0x00003436       0xb2 STLibrary/src/stm32f10x_systick.o
 .debug_line    0x000034e8      0x438 STLibrary/src/stm32f10x_tim.o
 .debug_line    0x00003920       0xa0 STLibrary/src/cortexm3_macro.o
 .debug_line    0x000039c0       0x62 STLibrary/src/stm32f10x_vector.o
 .debug_line    0x00003a22      0x132 d:/gcc-arm-none-eabi/bin/../lib/gcc/arm-none-eabi/4.9.3/thumb\libgcc.a(_arm_addsubsf3.o)
 .debug_line    0x00003b54      0x13e d:/gcc-arm-none-eabi/bin/../lib/gcc/arm-none-eabi/4.9.3/thumb\libgcc.a(_arm_muldivsf3.o)
 .debug_line    0x00003c92       0x91 d:/gcc-arm-none-eabi/bin/../lib/gcc/arm-none-eabi/4.9.3/thumb\libgcc.a(_arm_fixunssfsi.o)
 .debug_line    0x00003d23      0x182 d:/gcc-arm-none-eabi/bin/../lib/gcc/arm-none-eabi/4.9.3/../../../../arm-none-eabi/lib/thumb\libc.a(lib_a-exit.o)
 .debug_line    0x00003ea5      0x11f d:/gcc-arm-none-eabi/bin/../lib/gcc/arm-none-eabi/4.9.3/../../../../arm-none-eabi/lib/thumb\libc.a(lib_a-impure.o)
 .debug_line    0x00003fc4      0x10b d:/gcc-arm-none-eabi/bin/../lib/gcc/arm-none-eabi/4.9.3/../../../../arm-none-eabi/lib/thumb\libc.a(lib_a-init.o)
 .debug_line    0x000040cf      0x132 d:/gcc-arm-none-eabi/bin/../lib/gcc/arm-none-eabi/4.9.3/../../../../arm-none-eabi/lib/thumb\libc.a(lib_a-memcmp.o)
 .debug_line    0x00004201      0x142 d:/gcc-arm-none-eabi/bin/../lib/gcc/arm-none-eabi/4.9.3/../../../../arm-none-eabi/lib/thumb\libc.a(lib_a-memcpy.o)
 .debug_line    0x00004343      0x13d d:/gcc-arm-none-eabi/bin/../lib/gcc/arm-none-eabi/4.9.3/../../../../arm-none-eabi/lib/thumb\libc.a(lib_a-memset.o)
 .debug_line    0x00004480      0x1c4 d:/gcc-arm-none-eabi/bin/../lib/gcc/arm-none-eabi/4.9.3/../../../../arm-none-eabi/lib/thumb\libc.a(lib_a-sprintf.o)
 .debug_line    0x00004644       0xb7 d:/gcc-arm-none-eabi/bin/../lib/gcc/arm-none-eabi/4.9.3/../../../../arm-none-eabi/lib/thumb\libc.a(lib_a-strcpy.o)
 .debug_line    0x000046fb      0x12e d:/gcc-arm-none-eabi/bin/../lib/gcc/arm-none-eabi/4.9.3/../../../../arm-none-eabi/lib/thumb\libc.a(lib_a-strlen.o)
 .debug_line    0x00004829      0x8a7 d:/gcc-arm-none-eabi/bin/../lib/gcc/arm-none-eabi/4.9.3/../../../../arm-none-eabi/lib/thumb\libc.a(lib_a-svfprintf.o)
 .debug_line    0x000050d0      0x120 d:/gcc-arm-none-eabi/bin/../lib/gcc/arm-none-eabi/4.9.3/../../../../arm-none-eabi/lib/thumb\libc.a(lib_a-__call_atexit.o)
 .debug_line    0x000051f0      0x64a d:/gcc-arm-none-eabi/bin/../lib/gcc/arm-none-eabi/4.9.3/../../../../arm-none-eabi/lib/thumb\libc.a(lib_a-dtoa.o)
 .debug_line    0x0000583a      0x245 d:/gcc-arm-none-eabi/bin/../lib/gcc/arm-none-eabi/4.9.3/../../../../arm-none-eabi/lib/thumb\libc.a(lib_a-freer.o)
 .debug_line    0x00005a7f      0x20c d:/gcc-arm-none-eabi/bin/../lib/gcc/arm-none-eabi/4.9.3/../../../../arm-none-eabi/lib/thumb\libc.a(lib_a-locale.o)
 .debug_line    0x00005c8b      0x17d d:/gcc-arm-none-eabi/bin/../lib/gcc/arm-none-eabi/4.9.3/../../../../arm-none-eabi/lib/thumb\libc.a(lib_a-malloc.o)
 .debug_line    0x00005e08      0x385 d:/gcc-arm-none-eabi/bin/../lib/gcc/arm-none-eabi/4.9.3/../../../../arm-none-eabi/lib/thumb\libc.a(lib_a-mallocr.o)
 .debug_line    0x0000618d      0x140 d:/gcc-arm-none-eabi/bin/../lib/gcc/arm-none-eabi/4.9.3/../../../../arm-none-eabi/lib/thumb\libc.a(lib_a-memchr.o)
 .debug_line    0x000062cd      0x13f d:/gcc-arm-none-eabi/bin/../lib/gcc/arm-none-eabi/4.9.3/../../../../arm-none-eabi/lib/thumb\libc.a(lib_a-mlock.o)
 .debug_line    0x0000640c      0x6c7 d:/gcc-arm-none-eabi/bin/../lib/gcc/arm-none-eabi/4.9.3/../../../../arm-none-eabi/lib/thumb\libc.a(lib_a-mprec.o)
 .debug_line    0x00006ad3      0x123 d:/gcc-arm-none-eabi/bin/../lib/gcc/arm-none-eabi/4.9.3/../../../../arm-none-eabi/lib/thumb\libc.a(lib_a-s_fpclassify.o)
 .debug_line    0x00006bf6      0x163 d:/gcc-arm-none-eabi/bin/../lib/gcc/arm-none-eabi/4.9.3/../../../../arm-none-eabi/lib/thumb\libc.a(lib_a-s_frexp.o)
 .debug_line    0x00006d59      0x118 d:/gcc-arm-none-eabi/bin/../lib/gcc/arm-none-eabi/4.9.3/../../../../arm-none-eabi/lib/thumb\libc.a(lib_a-strcmp.o)
 .debug_line    0x00006e71      0x139 d:/gcc-arm-none-eabi/bin/../lib/gcc/arm-none-eabi/4.9.3/../../../../arm-none-eabi/lib/thumb\libc.a(lib_a-strncpy.o)
 .debug_line    0x00006faa      0x667 d:/gcc-arm-none-eabi/bin/../lib/gcc/arm-none-eabi/4.9.3/../../../../arm-none-eabi/lib/thumb\libc.a(lib_a-svfiprintf.o)
 .debug_line    0x00007611      0x163 d:/gcc-arm-none-eabi/bin/../lib/gcc/arm-none-eabi/4.9.3/../../../../arm-none-eabi/lib/thumb\libc.a(lib_a-callocr.o)
 .debug_line    0x00007774      0x143 d:/gcc-arm-none-eabi/bin/../lib/gcc/arm-none-eabi/4.9.3/../../../../arm-none-eabi/lib/thumb\libc.a(lib_a-memmove.o)
 .debug_line    0x000078b7      0x2a6 d:/gcc-arm-none-eabi/bin/../lib/gcc/arm-none-eabi/4.9.3/../../../../arm-none-eabi/lib/thumb\libc.a(lib_a-reallocr.o)
 .debug_line    0x00007b5d       0x99 d:/gcc-arm-none-eabi/bin/../lib/gcc/arm-none-eabi/4.9.3/thumb\libgcc.a(_udivsi3.o)
 .debug_line    0x00007bf6       0xa5 d:/gcc-arm-none-eabi/bin/../lib/gcc/arm-none-eabi/4.9.3/thumb\libgcc.a(_divsi3.o)
 .debug_line    0x00007c9b       0x7c d:/gcc-arm-none-eabi/bin/../lib/gcc/arm-none-eabi/4.9.3/thumb\libgcc.a(_dvmd_tls.o)
 .debug_line    0x00007d17      0x17f d:/gcc-arm-none-eabi/bin/../lib/gcc/arm-none-eabi/4.9.3/thumb\libgcc.a(_arm_addsubdf3.o)
 .debug_line    0x00007e96      0x19b d:/gcc-arm-none-eabi/bin/../lib/gcc/arm-none-eabi/4.9.3/thumb\libgcc.a(_arm_muldivdf3.o)
 .debug_line    0x00008031       0xc9 d:/gcc-arm-none-eabi/bin/../lib/gcc/arm-none-eabi/4.9.3/thumb\libgcc.a(_arm_cmpdf2.o)
 .debug_line    0x000080fa       0x93 d:/gcc-arm-none-eabi/bin/../lib/gcc/arm-none-eabi/4.9.3/thumb\libgcc.a(_arm_fixdfsi.o)
 .debug_line    0x0000818d       0x7f d:/gcc-arm-none-eabi/bin/../lib/gcc/arm-none-eabi/4.9.3/thumb\libgcc.a(_aeabi_uldivmod.o)
 .debug_line    0x0000820c       0x86 d:/gcc-arm-none-eabi/bin/../lib/gcc/arm-none-eabi/4.9.3/thumb\libgcc.a(bpabi.o)
 .debug_line    0x00008292       0xa7 d:/gcc-arm-none-eabi/bin/../lib/gcc/arm-none-eabi/4.9.3/thumb\libgcc.a(_muldi3.o)
 .debug_line    0x00008339       0xc9 d:/gcc-arm-none-eabi/bin/../lib/gcc/arm-none-eabi/4.9.3/thumb\libgcc.a(_divdi3.o)
 .debug_line    0x00008402       0xb8 d:/gcc-arm-none-eabi/bin/../lib/gcc/arm-none-eabi/4.9.3/thumb\libgcc.a(_udivdi3.o)
 .debug_line    0x000084ba       0x86 d:/gcc-arm-none-eabi/bin/../lib/gcc/arm-none-eabi/4.9.3/thumb\libgcc.a(_clzdi2.o)
 .debug_line    0x00008540       0x89 d:/gcc-arm-none-eabi/bin/../lib/gcc/arm-none-eabi/4.9.3/thumb\libgcc.a(_clzsi2.o)

.debug_frame    0x00000000     0x4a20
 *(.debug_frame)
 .debug_frame   0x00000000       0xcc Src/main.o
 .debug_frame   0x000000cc      0x5f0 Src/stm32f10x_it.o
 .debug_frame   0x000006bc      0x148 Src/Stm32l_level.o
 .debug_frame   0x00000804      0x1a8 Src/Lcd3310.o
 .debug_frame   0x000009ac      0x11c Src/StringsConv.o
 .debug_frame   0x00000ac8       0x30 Src/ParTest.o
 .debug_frame   0x00000af8       0x58 Src/timertest.o
 .debug_frame   0x00000b50      0x1a4 FreeRTOS_Source/event_groups.o
 .debug_frame   0x00000cf4       0xd8 FreeRTOS_Source/list.o
 .debug_frame   0x00000dcc      0x3b4 FreeRTOS_Source/queue.o
 .debug_frame   0x00001180      0x7a0 FreeRTOS_Source/tasks.o
 .debug_frame   0x00001920      0x174 FreeRTOS_Source/portable/GCC/ARM_CM3/port.o
 .debug_frame   0x00001a94       0xa0 FreeRTOS_Source/Full/BlockQ.o
 .debug_frame   0x00001b34       0x9c FreeRTOS_Source/Full/comtest.o
 .debug_frame   0x00001bd0       0x98 FreeRTOS_Source/Full/death.o
 .debug_frame   0x00001c68       0xfc FreeRTOS_Source/Full/dynamic.o
 .debug_frame   0x00001d64       0xb8 FreeRTOS_Source/Full/events.o
 .debug_frame   0x00001e1c       0x54 FreeRTOS_Source/Full/flash.o
 .debug_frame   0x00001e70       0x80 FreeRTOS_Source/Full/integer.o
 .debug_frame   0x00001ef0       0x9c FreeRTOS_Source/Full/PollQ.o
 .debug_frame   0x00001f8c       0x80 FreeRTOS_Source/Full/print.o
 .debug_frame   0x0000200c       0x80 FreeRTOS_Source/Full/semtest.o
 .debug_frame   0x0000208c       0xd8 FreeRTOS_Source/Full/QPeek.o
 .debug_frame   0x00002164      0x120 FreeRTOS_Source/Full/GenQTest.o
 .debug_frame   0x00002284       0xbc FreeRTOS_Source/Full/recmutex.o
 .debug_frame   0x00002340       0xc0 FreeRTOS_Source/portable/MemMang/heap_2.o
 .debug_frame   0x00002400      0x138 Src/syscalls.o
 .debug_frame   0x00002538      0x2a8 STLibrary/src/stm32f10x_gpio.o
 .debug_frame   0x000027e0      0x458 STLibrary/src/stm32f10x_nvic.o
 .debug_frame   0x00002c38      0x4f4 STLibrary/src/stm32f10x_rcc.o
 .debug_frame   0x0000312c       0xf8 STLibrary/src/stm32f10x_systick.o
 .debug_frame   0x00003224      0xe2c STLibrary/src/stm32f10x_tim.o
 .debug_frame   0x00004050       0x40 STLibrary/src/stm32f10x_vector.o
 .debug_frame   0x00004090       0x28 d:/gcc-arm-none-eabi/bin/../lib/gcc/arm-none-eabi/4.9.3/../../../../arm-none-eabi/lib/thumb\libc.a(lib_a-exit.o)
 .debug_frame   0x000040b8       0x2c d:/gcc-arm-none-eabi/bin/../lib/gcc/arm-none-eabi/4.9.3/../../../../arm-none-eabi/lib/thumb\libc.a(lib_a-init.o)
 .debug_frame   0x000040e4       0x2c d:/gcc-arm-none-eabi/bin/../lib/gcc/arm-none-eabi/4.9.3/../../../../arm-none-eabi/lib/thumb\libc.a(lib_a-memcmp.o)
 .debug_frame   0x00004110       0x2c d:/gcc-arm-none-eabi/bin/../lib/gcc/arm-none-eabi/4.9.3/../../../../arm-none-eabi/lib/thumb\libc.a(lib_a-memcpy.o)
 .debug_frame   0x0000413c       0x2c d:/gcc-arm-none-eabi/bin/../lib/gcc/arm-none-eabi/4.9.3/../../../../arm-none-eabi/lib/thumb\libc.a(lib_a-memset.o)
 .debug_frame   0x00004168       0x50 d:/gcc-arm-none-eabi/bin/../lib/gcc/arm-none-eabi/4.9.3/../../../../arm-none-eabi/lib/thumb\libc.a(lib_a-sprintf.o)
 .debug_frame   0x000041b8       0x20 d:/gcc-arm-none-eabi/bin/../lib/gcc/arm-none-eabi/4.9.3/../../../../arm-none-eabi/lib/thumb\libc.a(lib_a-strcpy.o)
 .debug_frame   0x000041d8       0x28 d:/gcc-arm-none-eabi/bin/../lib/gcc/arm-none-eabi/4.9.3/../../../../arm-none-eabi/lib/thumb\libc.a(lib_a-strlen.o)
 .debug_frame   0x00004200       0x3c d:/gcc-arm-none-eabi/bin/../lib/gcc/arm-none-eabi/4.9.3/../../../../arm-none-eabi/lib/thumb\libc.a(lib_a-svfprintf.o)
 .debug_frame   0x0000423c       0x3c d:/gcc-arm-none-eabi/bin/../lib/gcc/arm-none-eabi/4.9.3/../../../../arm-none-eabi/lib/thumb\libc.a(lib_a-__call_atexit.o)
 .debug_frame   0x00004278       0x68 d:/gcc-arm-none-eabi/bin/../lib/gcc/arm-none-eabi/4.9.3/../../../../arm-none-eabi/lib/thumb\libc.a(lib_a-dtoa.o)
 .debug_frame   0x000042e0       0x54 d:/gcc-arm-none-eabi/bin/../lib/gcc/arm-none-eabi/4.9.3/../../../../arm-none-eabi/lib/thumb\libc.a(lib_a-freer.o)
 .debug_frame   0x00004334       0xa4 d:/gcc-arm-none-eabi/bin/../lib/gcc/arm-none-eabi/4.9.3/../../../../arm-none-eabi/lib/thumb\libc.a(lib_a-locale.o)
 .debug_frame   0x000043d8       0x40 d:/gcc-arm-none-eabi/bin/../lib/gcc/arm-none-eabi/4.9.3/../../../../arm-none-eabi/lib/thumb\libc.a(lib_a-malloc.o)
 .debug_frame   0x00004418       0x3c d:/gcc-arm-none-eabi/bin/../lib/gcc/arm-none-eabi/4.9.3/../../../../arm-none-eabi/lib/thumb\libc.a(lib_a-mallocr.o)
 .debug_frame   0x00004454       0x2c d:/gcc-arm-none-eabi/bin/../lib/gcc/arm-none-eabi/4.9.3/../../../../arm-none-eabi/lib/thumb\libc.a(lib_a-memchr.o)
 .debug_frame   0x00004480       0x30 d:/gcc-arm-none-eabi/bin/../lib/gcc/arm-none-eabi/4.9.3/../../../../arm-none-eabi/lib/thumb\libc.a(lib_a-mlock.o)
 .debug_frame   0x000044b0      0x268 d:/gcc-arm-none-eabi/bin/../lib/gcc/arm-none-eabi/4.9.3/../../../../arm-none-eabi/lib/thumb\libc.a(lib_a-mprec.o)
 .debug_frame   0x00004718       0x28 d:/gcc-arm-none-eabi/bin/../lib/gcc/arm-none-eabi/4.9.3/../../../../arm-none-eabi/lib/thumb\libc.a(lib_a-s_fpclassify.o)
 .debug_frame   0x00004740       0x30 d:/gcc-arm-none-eabi/bin/../lib/gcc/arm-none-eabi/4.9.3/../../../../arm-none-eabi/lib/thumb\libc.a(lib_a-s_frexp.o)
 .debug_frame   0x00004770       0x2c d:/gcc-arm-none-eabi/bin/../lib/gcc/arm-none-eabi/4.9.3/../../../../arm-none-eabi/lib/thumb\libc.a(lib_a-strncpy.o)
 .debug_frame   0x0000479c       0x90 d:/gcc-arm-none-eabi/bin/../lib/gcc/arm-none-eabi/4.9.3/../../../../arm-none-eabi/lib/thumb\libc.a(lib_a-svfiprintf.o)
 .debug_frame   0x0000482c       0x28 d:/gcc-arm-none-eabi/bin/../lib/gcc/arm-none-eabi/4.9.3/../../../../arm-none-eabi/lib/thumb\libc.a(lib_a-callocr.o)
 .debug_frame   0x00004854       0x2c d:/gcc-arm-none-eabi/bin/../lib/gcc/arm-none-eabi/4.9.3/../../../../arm-none-eabi/lib/thumb\libc.a(lib_a-memmove.o)
 .debug_frame   0x00004880       0x3c d:/gcc-arm-none-eabi/bin/../lib/gcc/arm-none-eabi/4.9.3/../../../../arm-none-eabi/lib/thumb\libc.a(lib_a-reallocr.o)
 .debug_frame   0x000048bc       0x20 d:/gcc-arm-none-eabi/bin/../lib/gcc/arm-none-eabi/4.9.3/thumb\libgcc.a(_udivsi3.o)
 .debug_frame   0x000048dc       0x20 d:/gcc-arm-none-eabi/bin/../lib/gcc/arm-none-eabi/4.9.3/thumb\libgcc.a(_divsi3.o)
 .debug_frame   0x000048fc       0x28 d:/gcc-arm-none-eabi/bin/../lib/gcc/arm-none-eabi/4.9.3/thumb\libgcc.a(_aeabi_uldivmod.o)
 .debug_frame   0x00004924       0x50 d:/gcc-arm-none-eabi/bin/../lib/gcc/arm-none-eabi/4.9.3/thumb\libgcc.a(bpabi.o)
 .debug_frame   0x00004974       0x34 d:/gcc-arm-none-eabi/bin/../lib/gcc/arm-none-eabi/4.9.3/thumb\libgcc.a(_muldi3.o)
 .debug_frame   0x000049a8       0x3c d:/gcc-arm-none-eabi/bin/../lib/gcc/arm-none-eabi/4.9.3/thumb\libgcc.a(_divdi3.o)
 .debug_frame   0x000049e4       0x3c d:/gcc-arm-none-eabi/bin/../lib/gcc/arm-none-eabi/4.9.3/thumb\libgcc.a(_udivdi3.o)

.debug_str      0x00000000     0x61bd
 *(.debug_str)
 .debug_str     0x00000000      0x20e Src/main.o
                                0x280 (size before relaxing)
 .debug_str     0x0000020e      0x39c Src/stm32f10x_it.o
                                0x462 (size before relaxing)
 .debug_str     0x000005aa      0x11e Src/Stm32l_level.o
                                0x218 (size before relaxing)
 .debug_str     0x000006c8       0xa7 Src/Lcd3310.o
                                0x1dd (size before relaxing)
 .debug_str     0x0000076f      0x155 Src/StringsConv.o
                                0x221 (size before relaxing)
 .debug_str     0x000008c4       0x21 Src/ParTest.o
                                0x179 (size before relaxing)
 .debug_str     0x000008e5      0x2be Src/timertest.o
                                0x3de (size before relaxing)
 .debug_str     0x00000ba3       0x1b FreeRTOS_Source/croutine.o
                                0x118 (size before relaxing)
 .debug_str     0x00000bbe      0x348 FreeRTOS_Source/event_groups.o
                                0x4b9 (size before relaxing)
 .debug_str     0x00000f06       0xa4 FreeRTOS_Source/list.o
                                0x259 (size before relaxing)
 .debug_str     0x00000faa      0x41a FreeRTOS_Source/queue.o
                                0x64d (size before relaxing)
 .debug_str     0x000013c4      0xb63 FreeRTOS_Source/tasks.o
                                0xe82 (size before relaxing)
 .debug_str     0x00001f27       0x19 FreeRTOS_Source/timers.o
                                0x116 (size before relaxing)
 .debug_str     0x00001f40      0x166 FreeRTOS_Source/portable/GCC/ARM_CM3/port.o
                                0x2ce (size before relaxing)
 .debug_str     0x000020a6      0x211 FreeRTOS_Source/Full/BlockQ.o
                                0x3a6 (size before relaxing)
 .debug_str     0x000022b7       0xf1 FreeRTOS_Source/Full/comtest.o
                                0x251 (size before relaxing)
 .debug_str     0x000023a8       0xf1 FreeRTOS_Source/Full/death.o
                                0x272 (size before relaxing)
 .debug_str     0x00002499      0x1ea FreeRTOS_Source/Full/dynamic.o
                                0x38d (size before relaxing)
 .debug_str     0x00002683      0x132 FreeRTOS_Source/Full/events.o
                                0x2ad (size before relaxing)
 .debug_str     0x000027b5       0x65 FreeRTOS_Source/Full/flash.o
                                0x1d2 (size before relaxing)
 .debug_str     0x0000281a       0x91 FreeRTOS_Source/Full/integer.o
                                0x1e0 (size before relaxing)
 .debug_str     0x000028ab       0xc2 FreeRTOS_Source/Full/PollQ.o
                                0x275 (size before relaxing)
 .debug_str     0x0000296d       0x8d FreeRTOS_Source/Full/print.o
                                0x1de (size before relaxing)
 .debug_str     0x000029fa      0x14c FreeRTOS_Source/Full/semtest.o
                                0x2fe (size before relaxing)
 .debug_str     0x00002b46      0x11f FreeRTOS_Source/Full/QPeek.o
                                0x29b (size before relaxing)
 .debug_str     0x00002c65      0x188 FreeRTOS_Source/Full/GenQTest.o
                                0x34f (size before relaxing)
 .debug_str     0x00002ded      0x188 FreeRTOS_Source/Full/recmutex.o
                                0x325 (size before relaxing)
 .debug_str     0x00002f75      0x15e FreeRTOS_Source/portable/MemMang/heap_2.o
                                0x2b2 (size before relaxing)
 .debug_str     0x000030d3      0x44a Src/syscalls.o
                                0x5bb (size before relaxing)
 .debug_str     0x0000351d      0x30e STLibrary/src/stm32f10x_gpio.o
                                0x421 (size before relaxing)
 .debug_str     0x0000382b      0x468 STLibrary/src/stm32f10x_nvic.o
                                0x639 (size before relaxing)
 .debug_str     0x00003c93      0x3f0 STLibrary/src/stm32f10x_rcc.o
                                0x568 (size before relaxing)
 .debug_str     0x00004083       0xe8 STLibrary/src/stm32f10x_systick.o
                                0x20d (size before relaxing)
 .debug_str     0x0000416b      0xa3c STLibrary/src/stm32f10x_tim.o
                                0xd2b (size before relaxing)
 .debug_str     0x00004ba7       0x75 STLibrary/src/stm32f10x_vector.o
                                 0xfb (size before relaxing)
 .debug_str     0x00004c1c       0xe4 d:/gcc-arm-none-eabi/bin/../lib/gcc/arm-none-eabi/4.9.3/../../../../arm-none-eabi/lib/thumb\libc.a(lib_a-exit.o)
                                0x4c9 (size before relaxing)
 .debug_str     0x00004d00       0x97 d:/gcc-arm-none-eabi/bin/../lib/gcc/arm-none-eabi/4.9.3/../../../../arm-none-eabi/lib/thumb\libc.a(lib_a-impure.o)
                                0x500 (size before relaxing)
 .debug_str     0x00004d97       0xaf d:/gcc-arm-none-eabi/bin/../lib/gcc/arm-none-eabi/4.9.3/../../../../arm-none-eabi/lib/thumb\libc.a(lib_a-init.o)
                                0x1b8 (size before relaxing)
 .debug_str     0x00004e46       0x54 d:/gcc-arm-none-eabi/bin/../lib/gcc/arm-none-eabi/4.9.3/../../../../arm-none-eabi/lib/thumb\libc.a(lib_a-memcmp.o)
                                0x157 (size before relaxing)
 .debug_str     0x00004e9a       0x7b d:/gcc-arm-none-eabi/bin/../lib/gcc/arm-none-eabi/4.9.3/../../../../arm-none-eabi/lib/thumb\libc.a(lib_a-memcpy.o)
                                0x17e (size before relaxing)
 .debug_str     0x00004f15       0x61 d:/gcc-arm-none-eabi/bin/../lib/gcc/arm-none-eabi/4.9.3/../../../../arm-none-eabi/lib/thumb\libc.a(lib_a-memset.o)
                                0x16b (size before relaxing)
 .debug_str     0x00004f76       0xeb d:/gcc-arm-none-eabi/bin/../lib/gcc/arm-none-eabi/4.9.3/../../../../arm-none-eabi/lib/thumb\libc.a(lib_a-sprintf.o)
                                0x54e (size before relaxing)
 .debug_str     0x00005061       0x59 d:/gcc-arm-none-eabi/bin/../lib/gcc/arm-none-eabi/4.9.3/../../../../arm-none-eabi/lib/thumb\libc.a(lib_a-strcpy.o)
                                0x155 (size before relaxing)
 .debug_str     0x000050ba       0x54 d:/gcc-arm-none-eabi/bin/../lib/gcc/arm-none-eabi/4.9.3/../../../../arm-none-eabi/lib/thumb\libc.a(lib_a-strlen.o)
                                0x16a (size before relaxing)
 .debug_str     0x0000510e      0x33a d:/gcc-arm-none-eabi/bin/../lib/gcc/arm-none-eabi/4.9.3/../../../../arm-none-eabi/lib/thumb\libc.a(lib_a-svfprintf.o)
                                0x898 (size before relaxing)
 .debug_str     0x00005448       0xce d:/gcc-arm-none-eabi/bin/../lib/gcc/arm-none-eabi/4.9.3/../../../../arm-none-eabi/lib/thumb\libc.a(lib_a-__call_atexit.o)
                                0x1fb (size before relaxing)
 .debug_str     0x00005516      0x170 d:/gcc-arm-none-eabi/bin/../lib/gcc/arm-none-eabi/4.9.3/../../../../arm-none-eabi/lib/thumb\libc.a(lib_a-dtoa.o)
                                0x619 (size before relaxing)
 .debug_str     0x00005686      0x1e4 d:/gcc-arm-none-eabi/bin/../lib/gcc/arm-none-eabi/4.9.3/../../../../arm-none-eabi/lib/thumb\libc.a(lib_a-freer.o)
                                0x67a (size before relaxing)
 .debug_str     0x0000586a      0x195 d:/gcc-arm-none-eabi/bin/../lib/gcc/arm-none-eabi/4.9.3/../../../../arm-none-eabi/lib/thumb\libc.a(lib_a-locale.o)
                                0x77e (size before relaxing)
 .debug_str     0x000059ff       0x52 d:/gcc-arm-none-eabi/bin/../lib/gcc/arm-none-eabi/4.9.3/../../../../arm-none-eabi/lib/thumb\libc.a(lib_a-malloc.o)
                                0x4d4 (size before relaxing)
 .debug_str     0x00005a51       0xdf d:/gcc-arm-none-eabi/bin/../lib/gcc/arm-none-eabi/4.9.3/../../../../arm-none-eabi/lib/thumb\libc.a(lib_a-mallocr.o)
                                0x730 (size before relaxing)
 .debug_str     0x00005b30       0x5b d:/gcc-arm-none-eabi/bin/../lib/gcc/arm-none-eabi/4.9.3/../../../../arm-none-eabi/lib/thumb\libc.a(lib_a-memchr.o)
                                0x171 (size before relaxing)
 .debug_str     0x00005b8b       0x61 d:/gcc-arm-none-eabi/bin/../lib/gcc/arm-none-eabi/4.9.3/../../../../arm-none-eabi/lib/thumb\libc.a(lib_a-mlock.o)
                                0x4c9 (size before relaxing)
 .debug_str     0x00005bec       0xb7 d:/gcc-arm-none-eabi/bin/../lib/gcc/arm-none-eabi/4.9.3/../../../../arm-none-eabi/lib/thumb\libc.a(lib_a-mprec.o)
                                0x5d3 (size before relaxing)
 .debug_str     0x00005ca3       0x53 d:/gcc-arm-none-eabi/bin/../lib/gcc/arm-none-eabi/4.9.3/../../../../arm-none-eabi/lib/thumb\libc.a(lib_a-s_fpclassify.o)
                                0x181 (size before relaxing)
 .debug_str     0x00005cf6       0x8d d:/gcc-arm-none-eabi/bin/../lib/gcc/arm-none-eabi/4.9.3/../../../../arm-none-eabi/lib/thumb\libc.a(lib_a-s_frexp.o)
                                0x1b9 (size before relaxing)
 .debug_str     0x00005d83       0x4e d:/gcc-arm-none-eabi/bin/../lib/gcc/arm-none-eabi/4.9.3/../../../../arm-none-eabi/lib/thumb\libc.a(lib_a-strncpy.o)
                                0x181 (size before relaxing)
 .debug_str     0x00005dd1       0x78 d:/gcc-arm-none-eabi/bin/../lib/gcc/arm-none-eabi/4.9.3/../../../../arm-none-eabi/lib/thumb\libc.a(lib_a-svfiprintf.o)
                                0x849 (size before relaxing)
 .debug_str     0x00005e49        0xf d:/gcc-arm-none-eabi/bin/../lib/gcc/arm-none-eabi/4.9.3/../../../../arm-none-eabi/lib/thumb\libc.a(lib_a-callocr.o)
                                0x55a (size before relaxing)
 .debug_str     0x00005e58       0x57 d:/gcc-arm-none-eabi/bin/../lib/gcc/arm-none-eabi/4.9.3/../../../../arm-none-eabi/lib/thumb\libc.a(lib_a-memmove.o)
                                0x18a (size before relaxing)
 .debug_str     0x00005eaf       0x4e d:/gcc-arm-none-eabi/bin/../lib/gcc/arm-none-eabi/4.9.3/../../../../arm-none-eabi/lib/thumb\libc.a(lib_a-reallocr.o)
                                0x602 (size before relaxing)
 .debug_str     0x00005efd      0x115 d:/gcc-arm-none-eabi/bin/../lib/gcc/arm-none-eabi/4.9.3/thumb\libgcc.a(bpabi.o)
                                0x144 (size before relaxing)
 .debug_str     0x00006012      0x103 d:/gcc-arm-none-eabi/bin/../lib/gcc/arm-none-eabi/4.9.3/thumb\libgcc.a(_muldi3.o)
                                0x236 (size before relaxing)
 .debug_str     0x00006115       0xa8 d:/gcc-arm-none-eabi/bin/../lib/gcc/arm-none-eabi/4.9.3/thumb\libgcc.a(_divdi3.o)
                                0x230 (size before relaxing)
 .debug_str     0x000061bd      0x20d d:/gcc-arm-none-eabi/bin/../lib/gcc/arm-none-eabi/4.9.3/thumb\libgcc.a(_udivdi3.o)

.debug_loc      0x00000000     0xd80f
 *(.debug_loc)
 .debug_loc     0x00000000       0x1e d:/gcc-arm-none-eabi/bin/../lib/gcc/arm-none-eabi/4.9.3/../../../../arm-none-eabi/lib/thumb\libc.a(lib_a-exit.o)
 .debug_loc     0x0000001e       0x84 d:/gcc-arm-none-eabi/bin/../lib/gcc/arm-none-eabi/4.9.3/../../../../arm-none-eabi/lib/thumb\libc.a(lib_a-init.o)
 .debug_loc     0x000000a2      0x118 d:/gcc-arm-none-eabi/bin/../lib/gcc/arm-none-eabi/4.9.3/../../../../arm-none-eabi/lib/thumb\libc.a(lib_a-memcmp.o)
 .debug_loc     0x000001ba      0x3b6 d:/gcc-arm-none-eabi/bin/../lib/gcc/arm-none-eabi/4.9.3/../../../../arm-none-eabi/lib/thumb\libc.a(lib_a-memcpy.o)
 .debug_loc     0x00000570      0x1d0 d:/gcc-arm-none-eabi/bin/../lib/gcc/arm-none-eabi/4.9.3/../../../../arm-none-eabi/lib/thumb\libc.a(lib_a-memset.o)
 .debug_loc     0x00000740       0x88 d:/gcc-arm-none-eabi/bin/../lib/gcc/arm-none-eabi/4.9.3/../../../../arm-none-eabi/lib/thumb\libc.a(lib_a-sprintf.o)
 .debug_loc     0x000007c8       0x21 d:/gcc-arm-none-eabi/bin/../lib/gcc/arm-none-eabi/4.9.3/../../../../arm-none-eabi/lib/thumb\libc.a(lib_a-strcpy.o)
 .debug_loc     0x000007e9       0x8f d:/gcc-arm-none-eabi/bin/../lib/gcc/arm-none-eabi/4.9.3/../../../../arm-none-eabi/lib/thumb\libc.a(lib_a-strlen.o)
 .debug_loc     0x00000878     0x3110 d:/gcc-arm-none-eabi/bin/../lib/gcc/arm-none-eabi/4.9.3/../../../../arm-none-eabi/lib/thumb\libc.a(lib_a-svfprintf.o)
 .debug_loc     0x00003988      0x191 d:/gcc-arm-none-eabi/bin/../lib/gcc/arm-none-eabi/4.9.3/../../../../arm-none-eabi/lib/thumb\libc.a(lib_a-__call_atexit.o)
 .debug_loc     0x00003b19     0x2d0a d:/gcc-arm-none-eabi/bin/../lib/gcc/arm-none-eabi/4.9.3/../../../../arm-none-eabi/lib/thumb\libc.a(lib_a-dtoa.o)
 .debug_loc     0x00006823      0x485 d:/gcc-arm-none-eabi/bin/../lib/gcc/arm-none-eabi/4.9.3/../../../../arm-none-eabi/lib/thumb\libc.a(lib_a-freer.o)
 .debug_loc     0x00006ca8       0xf2 d:/gcc-arm-none-eabi/bin/../lib/gcc/arm-none-eabi/4.9.3/../../../../arm-none-eabi/lib/thumb\libc.a(lib_a-locale.o)
 .debug_loc     0x00006d9a       0x58 d:/gcc-arm-none-eabi/bin/../lib/gcc/arm-none-eabi/4.9.3/../../../../arm-none-eabi/lib/thumb\libc.a(lib_a-malloc.o)
 .debug_loc     0x00006df2      0xd1d d:/gcc-arm-none-eabi/bin/../lib/gcc/arm-none-eabi/4.9.3/../../../../arm-none-eabi/lib/thumb\libc.a(lib_a-mallocr.o)
 .debug_loc     0x00007b0f      0x1b1 d:/gcc-arm-none-eabi/bin/../lib/gcc/arm-none-eabi/4.9.3/../../../../arm-none-eabi/lib/thumb\libc.a(lib_a-memchr.o)
 .debug_loc     0x00007cc0     0x1ca5 d:/gcc-arm-none-eabi/bin/../lib/gcc/arm-none-eabi/4.9.3/../../../../arm-none-eabi/lib/thumb\libc.a(lib_a-mprec.o)
 .debug_loc     0x00009965       0x6f d:/gcc-arm-none-eabi/bin/../lib/gcc/arm-none-eabi/4.9.3/../../../../arm-none-eabi/lib/thumb\libc.a(lib_a-s_fpclassify.o)
 .debug_loc     0x000099d4      0x133 d:/gcc-arm-none-eabi/bin/../lib/gcc/arm-none-eabi/4.9.3/../../../../arm-none-eabi/lib/thumb\libc.a(lib_a-s_frexp.o)
 .debug_loc     0x00009b07      0x137 d:/gcc-arm-none-eabi/bin/../lib/gcc/arm-none-eabi/4.9.3/../../../../arm-none-eabi/lib/thumb\libc.a(lib_a-strncpy.o)
 .debug_loc     0x00009c3e     0x15cf d:/gcc-arm-none-eabi/bin/../lib/gcc/arm-none-eabi/4.9.3/../../../../arm-none-eabi/lib/thumb\libc.a(lib_a-svfiprintf.o)
 .debug_loc     0x0000b20d      0x262 d:/gcc-arm-none-eabi/bin/../lib/gcc/arm-none-eabi/4.9.3/../../../../arm-none-eabi/lib/thumb\libc.a(lib_a-callocr.o)
 .debug_loc     0x0000b46f      0x47e d:/gcc-arm-none-eabi/bin/../lib/gcc/arm-none-eabi/4.9.3/../../../../arm-none-eabi/lib/thumb\libc.a(lib_a-memmove.o)
 .debug_loc     0x0000b8ed     0x12fa d:/gcc-arm-none-eabi/bin/../lib/gcc/arm-none-eabi/4.9.3/../../../../arm-none-eabi/lib/thumb\libc.a(lib_a-reallocr.o)
 .debug_loc     0x0000cbe7       0xe0 d:/gcc-arm-none-eabi/bin/../lib/gcc/arm-none-eabi/4.9.3/thumb\libgcc.a(bpabi.o)
 .debug_loc     0x0000ccc7      0x18e d:/gcc-arm-none-eabi/bin/../lib/gcc/arm-none-eabi/4.9.3/thumb\libgcc.a(_muldi3.o)
 .debug_loc     0x0000ce55      0x541 d:/gcc-arm-none-eabi/bin/../lib/gcc/arm-none-eabi/4.9.3/thumb\libgcc.a(_divdi3.o)
 .debug_loc     0x0000d396      0x479 d:/gcc-arm-none-eabi/bin/../lib/gcc/arm-none-eabi/4.9.3/thumb\libgcc.a(_udivdi3.o)

.debug_macinfo
 *(.debug_macinfo)

.debug_weaknames
 *(.debug_weaknames)

.debug_funcnames
 *(.debug_funcnames)

.debug_typenames
 *(.debug_typenames)

.debug_varnames
 *(.debug_varnames)

note.gnu.arm.ident
 *(.note.gnu.arm.ident)

.ARM.attributes
                0x00000000       0x31
 *(.ARM.attributes)
 .ARM.attributes
                0x00000000       0x16 d:/gcc-arm-none-eabi/bin/../lib/gcc/arm-none-eabi/4.9.3/thumb/crti.o
 .ARM.attributes
                0x00000016       0x30 d:/gcc-arm-none-eabi/bin/../lib/gcc/arm-none-eabi/4.9.3/thumb/crtbegin.o
 .ARM.attributes
                0x00000046       0x1a d:/gcc-arm-none-eabi/bin/../lib/gcc/arm-none-eabi/4.9.3/../../../../arm-none-eabi/lib/thumb/crt0.o
 .ARM.attributes
                0x00000060       0x33 Src/main.o
 .ARM.attributes
                0x00000093       0x33 Src/stm32f10x_it.o
 .ARM.attributes
                0x000000c6       0x33 Src/Stm32l_level.o
 .ARM.attributes
                0x000000f9       0x33 Src/Lcd3310.o
 .ARM.attributes
                0x0000012c       0x33 Src/StringsConv.o
 .ARM.attributes
                0x0000015f       0x33 Src/ParTest.o
 .ARM.attributes
                0x00000192       0x33 Src/timertest.o
 .ARM.attributes
                0x000001c5       0x33 FreeRTOS_Source/croutine.o
 .ARM.attributes
                0x000001f8       0x33 FreeRTOS_Source/event_groups.o
 .ARM.attributes
                0x0000022b       0x33 FreeRTOS_Source/list.o
 .ARM.attributes
                0x0000025e       0x33 FreeRTOS_Source/queue.o
 .ARM.attributes
                0x00000291       0x33 FreeRTOS_Source/tasks.o
 .ARM.attributes
                0x000002c4       0x33 FreeRTOS_Source/timers.o
 .ARM.attributes
                0x000002f7       0x33 FreeRTOS_Source/portable/GCC/ARM_CM3/port.o
 .ARM.attributes
                0x0000032a       0x33 FreeRTOS_Source/Full/BlockQ.o
 .ARM.attributes
                0x0000035d       0x33 FreeRTOS_Source/Full/comtest.o
 .ARM.attributes
                0x00000390       0x33 FreeRTOS_Source/Full/death.o
 .ARM.attributes
                0x000003c3       0x33 FreeRTOS_Source/Full/dynamic.o
 .ARM.attributes
                0x000003f6       0x33 FreeRTOS_Source/Full/events.o
 .ARM.attributes
                0x00000429       0x33 FreeRTOS_Source/Full/flash.o
 .ARM.attributes
                0x0000045c       0x33 FreeRTOS_Source/Full/integer.o
 .ARM.attributes
                0x0000048f       0x33 FreeRTOS_Source/Full/PollQ.o
 .ARM.attributes
                0x000004c2       0x33 FreeRTOS_Source/Full/print.o
 .ARM.attributes
                0x000004f5       0x33 FreeRTOS_Source/Full/semtest.o
 .ARM.attributes
                0x00000528       0x33 FreeRTOS_Source/Full/QPeek.o
 .ARM.attributes
                0x0000055b       0x33 FreeRTOS_Source/Full/GenQTest.o
 .ARM.attributes
                0x0000058e       0x33 FreeRTOS_Source/Full/recmutex.o
 .ARM.attributes
                0x000005c1       0x33 FreeRTOS_Source/portable/MemMang/heap_2.o
 .ARM.attributes
                0x000005f4       0x33 Src/syscalls.o
 .ARM.attributes
                0x00000627       0x33 STLibrary/src/stm32f10x_gpio.o
 .ARM.attributes
                0x0000065a       0x33 STLibrary/src/stm32f10x_nvic.o
 .ARM.attributes
                0x0000068d       0x33 STLibrary/src/stm32f10x_rcc.o
 .ARM.attributes
                0x000006c0       0x33 STLibrary/src/stm32f10x_systick.o
 .ARM.attributes
                0x000006f3       0x33 STLibrary/src/stm32f10x_tim.o
 .ARM.attributes
                0x00000726       0x21 STLibrary/src/cortexm3_macro.o
 .ARM.attributes
                0x00000747       0x33 STLibrary/src/stm32f10x_vector.o
 .ARM.attributes
                0x0000077a       0x18 d:/gcc-arm-none-eabi/bin/../lib/gcc/arm-none-eabi/4.9.3/thumb\libgcc.a(_arm_addsubsf3.o)
 .ARM.attributes
                0x00000792       0x18 d:/gcc-arm-none-eabi/bin/../lib/gcc/arm-none-eabi/4.9.3/thumb\libgcc.a(_arm_muldivsf3.o)
 .ARM.attributes
                0x000007aa       0x18 d:/gcc-arm-none-eabi/bin/../lib/gcc/arm-none-eabi/4.9.3/thumb\libgcc.a(_arm_fixunssfsi.o)
 .ARM.attributes
                0x000007c2       0x30 d:/gcc-arm-none-eabi/bin/../lib/gcc/arm-none-eabi/4.9.3/../../../../arm-none-eabi/lib/thumb\libc.a(lib_a-exit.o)
 .ARM.attributes
                0x000007f2       0x30 d:/gcc-arm-none-eabi/bin/../lib/gcc/arm-none-eabi/4.9.3/../../../../arm-none-eabi/lib/thumb\libc.a(lib_a-impure.o)
 .ARM.attributes
                0x00000822       0x30 d:/gcc-arm-none-eabi/bin/../lib/gcc/arm-none-eabi/4.9.3/../../../../arm-none-eabi/lib/thumb\libc.a(lib_a-init.o)
 .ARM.attributes
                0x00000852       0x30 d:/gcc-arm-none-eabi/bin/../lib/gcc/arm-none-eabi/4.9.3/../../../../arm-none-eabi/lib/thumb\libc.a(lib_a-memcmp.o)
 .ARM.attributes
                0x00000882       0x30 d:/gcc-arm-none-eabi/bin/../lib/gcc/arm-none-eabi/4.9.3/../../../../arm-none-eabi/lib/thumb\libc.a(lib_a-memcpy.o)
 .ARM.attributes
                0x000008b2       0x30 d:/gcc-arm-none-eabi/bin/../lib/gcc/arm-none-eabi/4.9.3/../../../../arm-none-eabi/lib/thumb\libc.a(lib_a-memset.o)
 .ARM.attributes
                0x000008e2       0x30 d:/gcc-arm-none-eabi/bin/../lib/gcc/arm-none-eabi/4.9.3/../../../../arm-none-eabi/lib/thumb\libc.a(lib_a-sprintf.o)
 .ARM.attributes
                0x00000912       0x30 d:/gcc-arm-none-eabi/bin/../lib/gcc/arm-none-eabi/4.9.3/../../../../arm-none-eabi/lib/thumb\libc.a(lib_a-strcpy.o)
 .ARM.attributes
                0x00000942       0x30 d:/gcc-arm-none-eabi/bin/../lib/gcc/arm-none-eabi/4.9.3/../../../../arm-none-eabi/lib/thumb\libc.a(lib_a-strlen.o)
 .ARM.attributes
                0x00000972       0x30 d:/gcc-arm-none-eabi/bin/../lib/gcc/arm-none-eabi/4.9.3/../../../../arm-none-eabi/lib/thumb\libc.a(lib_a-svfprintf.o)
 .ARM.attributes
                0x000009a2       0x30 d:/gcc-arm-none-eabi/bin/../lib/gcc/arm-none-eabi/4.9.3/../../../../arm-none-eabi/lib/thumb\libc.a(lib_a-__call_atexit.o)
 .ARM.attributes
                0x000009d2       0x30 d:/gcc-arm-none-eabi/bin/../lib/gcc/arm-none-eabi/4.9.3/../../../../arm-none-eabi/lib/thumb\libc.a(lib_a-dtoa.o)
 .ARM.attributes
                0x00000a02       0x30 d:/gcc-arm-none-eabi/bin/../lib/gcc/arm-none-eabi/4.9.3/../../../../arm-none-eabi/lib/thumb\libc.a(lib_a-freer.o)
 .ARM.attributes
                0x00000a32       0x30 d:/gcc-arm-none-eabi/bin/../lib/gcc/arm-none-eabi/4.9.3/../../../../arm-none-eabi/lib/thumb\libc.a(lib_a-locale.o)
 .ARM.attributes
                0x00000a62       0x30 d:/gcc-arm-none-eabi/bin/../lib/gcc/arm-none-eabi/4.9.3/../../../../arm-none-eabi/lib/thumb\libc.a(lib_a-malloc.o)
 .ARM.attributes
                0x00000a92       0x30 d:/gcc-arm-none-eabi/bin/../lib/gcc/arm-none-eabi/4.9.3/../../../../arm-none-eabi/lib/thumb\libc.a(lib_a-mallocr.o)
 .ARM.attributes
                0x00000ac2       0x30 d:/gcc-arm-none-eabi/bin/../lib/gcc/arm-none-eabi/4.9.3/../../../../arm-none-eabi/lib/thumb\libc.a(lib_a-memchr.o)
 .ARM.attributes
                0x00000af2       0x30 d:/gcc-arm-none-eabi/bin/../lib/gcc/arm-none-eabi/4.9.3/../../../../arm-none-eabi/lib/thumb\libc.a(lib_a-mlock.o)
 .ARM.attributes
                0x00000b22       0x30 d:/gcc-arm-none-eabi/bin/../lib/gcc/arm-none-eabi/4.9.3/../../../../arm-none-eabi/lib/thumb\libc.a(lib_a-mprec.o)
 .ARM.attributes
                0x00000b52       0x30 d:/gcc-arm-none-eabi/bin/../lib/gcc/arm-none-eabi/4.9.3/../../../../arm-none-eabi/lib/thumb\libc.a(lib_a-s_fpclassify.o)
 .ARM.attributes
                0x00000b82       0x30 d:/gcc-arm-none-eabi/bin/../lib/gcc/arm-none-eabi/4.9.3/../../../../arm-none-eabi/lib/thumb\libc.a(lib_a-s_frexp.o)
 .ARM.attributes
                0x00000bb2       0x16 d:/gcc-arm-none-eabi/bin/../lib/gcc/arm-none-eabi/4.9.3/../../../../arm-none-eabi/lib/thumb\libc.a(lib_a-strcmp.o)
 .ARM.attributes
                0x00000bc8       0x30 d:/gcc-arm-none-eabi/bin/../lib/gcc/arm-none-eabi/4.9.3/../../../../arm-none-eabi/lib/thumb\libc.a(lib_a-strncpy.o)
 .ARM.attributes
                0x00000bf8       0x30 d:/gcc-arm-none-eabi/bin/../lib/gcc/arm-none-eabi/4.9.3/../../../../arm-none-eabi/lib/thumb\libc.a(lib_a-svfiprintf.o)
 .ARM.attributes
                0x00000c28       0x30 d:/gcc-arm-none-eabi/bin/../lib/gcc/arm-none-eabi/4.9.3/../../../../arm-none-eabi/lib/thumb\libc.a(lib_a-callocr.o)
 .ARM.attributes
                0x00000c58       0x30 d:/gcc-arm-none-eabi/bin/../lib/gcc/arm-none-eabi/4.9.3/../../../../arm-none-eabi/lib/thumb\libc.a(lib_a-memmove.o)
 .ARM.attributes
                0x00000c88       0x30 d:/gcc-arm-none-eabi/bin/../lib/gcc/arm-none-eabi/4.9.3/../../../../arm-none-eabi/lib/thumb\libc.a(lib_a-reallocr.o)
 .ARM.attributes
                0x00000cb8       0x18 d:/gcc-arm-none-eabi/bin/../lib/gcc/arm-none-eabi/4.9.3/thumb\libgcc.a(_udivsi3.o)
 .ARM.attributes
                0x00000cd0       0x18 d:/gcc-arm-none-eabi/bin/../lib/gcc/arm-none-eabi/4.9.3/thumb\libgcc.a(_divsi3.o)
 .ARM.attributes
                0x00000ce8       0x16 d:/gcc-arm-none-eabi/bin/../lib/gcc/arm-none-eabi/4.9.3/thumb\libgcc.a(_dvmd_tls.o)
 .ARM.attributes
                0x00000cfe       0x18 d:/gcc-arm-none-eabi/bin/../lib/gcc/arm-none-eabi/4.9.3/thumb\libgcc.a(_arm_addsubdf3.o)
 .ARM.attributes
                0x00000d16       0x18 d:/gcc-arm-none-eabi/bin/../lib/gcc/arm-none-eabi/4.9.3/thumb\libgcc.a(_arm_muldivdf3.o)
 .ARM.attributes
                0x00000d2e       0x18 d:/gcc-arm-none-eabi/bin/../lib/gcc/arm-none-eabi/4.9.3/thumb\libgcc.a(_arm_cmpdf2.o)
 .ARM.attributes
                0x00000d46       0x18 d:/gcc-arm-none-eabi/bin/../lib/gcc/arm-none-eabi/4.9.3/thumb\libgcc.a(_arm_fixdfsi.o)
 .ARM.attributes
                0x00000d5e       0x18 d:/gcc-arm-none-eabi/bin/../lib/gcc/arm-none-eabi/4.9.3/thumb\libgcc.a(_aeabi_uldivmod.o)
 .ARM.attributes
                0x00000d76       0x30 d:/gcc-arm-none-eabi/bin/../lib/gcc/arm-none-eabi/4.9.3/thumb\libgcc.a(bpabi.o)
 .ARM.attributes
                0x00000da6       0x30 d:/gcc-arm-none-eabi/bin/../lib/gcc/arm-none-eabi/4.9.3/thumb\libgcc.a(_muldi3.o)
 .ARM.attributes
                0x00000dd6       0x30 d:/gcc-arm-none-eabi/bin/../lib/gcc/arm-none-eabi/4.9.3/thumb\libgcc.a(_divdi3.o)
 .ARM.attributes
                0x00000e06       0x30 d:/gcc-arm-none-eabi/bin/../lib/gcc/arm-none-eabi/4.9.3/thumb\libgcc.a(_udivdi3.o)
 .ARM.attributes
                0x00000e36       0x18 d:/gcc-arm-none-eabi/bin/../lib/gcc/arm-none-eabi/4.9.3/thumb\libgcc.a(_clzdi2.o)
 .ARM.attributes
                0x00000e4e       0x18 d:/gcc-arm-none-eabi/bin/../lib/gcc/arm-none-eabi/4.9.3/thumb\libgcc.a(_clzsi2.o)
 .ARM.attributes
                0x00000e66       0x30 d:/gcc-arm-none-eabi/bin/../lib/gcc/arm-none-eabi/4.9.3/thumb/crtend.o
 .ARM.attributes
                0x00000e96       0x16 d:/gcc-arm-none-eabi/bin/../lib/gcc/arm-none-eabi/4.9.3/thumb/crtn.o
OUTPUT(Output/Kamami_Stm32_blinky.elf elf32-littlearm)

.debug_ranges   0x00000000      0x760
 .debug_ranges  0x00000000       0x10 d:/gcc-arm-none-eabi/bin/../lib/gcc/arm-none-eabi/4.9.3/../../../../arm-none-eabi/lib/thumb\libc.a(lib_a-exit.o)
 .debug_ranges  0x00000010       0x10 d:/gcc-arm-none-eabi/bin/../lib/gcc/arm-none-eabi/4.9.3/../../../../arm-none-eabi/lib/thumb\libc.a(lib_a-init.o)
 .debug_ranges  0x00000020       0x10 d:/gcc-arm-none-eabi/bin/../lib/gcc/arm-none-eabi/4.9.3/../../../../arm-none-eabi/lib/thumb\libc.a(lib_a-memcmp.o)
 .debug_ranges  0x00000030       0x10 d:/gcc-arm-none-eabi/bin/../lib/gcc/arm-none-eabi/4.9.3/../../../../arm-none-eabi/lib/thumb\libc.a(lib_a-memcpy.o)
 .debug_ranges  0x00000040       0x10 d:/gcc-arm-none-eabi/bin/../lib/gcc/arm-none-eabi/4.9.3/../../../../arm-none-eabi/lib/thumb\libc.a(lib_a-memset.o)
 .debug_ranges  0x00000050       0x18 d:/gcc-arm-none-eabi/bin/../lib/gcc/arm-none-eabi/4.9.3/../../../../arm-none-eabi/lib/thumb\libc.a(lib_a-sprintf.o)
 .debug_ranges  0x00000068       0x10 d:/gcc-arm-none-eabi/bin/../lib/gcc/arm-none-eabi/4.9.3/../../../../arm-none-eabi/lib/thumb\libc.a(lib_a-strcpy.o)
 .debug_ranges  0x00000078       0x10 d:/gcc-arm-none-eabi/bin/../lib/gcc/arm-none-eabi/4.9.3/../../../../arm-none-eabi/lib/thumb\libc.a(lib_a-strlen.o)
 .debug_ranges  0x00000088      0x160 d:/gcc-arm-none-eabi/bin/../lib/gcc/arm-none-eabi/4.9.3/../../../../arm-none-eabi/lib/thumb\libc.a(lib_a-svfprintf.o)
 .debug_ranges  0x000001e8       0x48 d:/gcc-arm-none-eabi/bin/../lib/gcc/arm-none-eabi/4.9.3/../../../../arm-none-eabi/lib/thumb\libc.a(lib_a-__call_atexit.o)
 .debug_ranges  0x00000230       0x38 d:/gcc-arm-none-eabi/bin/../lib/gcc/arm-none-eabi/4.9.3/../../../../arm-none-eabi/lib/thumb\libc.a(lib_a-dtoa.o)
 .debug_ranges  0x00000268       0x18 d:/gcc-arm-none-eabi/bin/../lib/gcc/arm-none-eabi/4.9.3/../../../../arm-none-eabi/lib/thumb\libc.a(lib_a-freer.o)
 .debug_ranges  0x00000280       0x60 d:/gcc-arm-none-eabi/bin/../lib/gcc/arm-none-eabi/4.9.3/../../../../arm-none-eabi/lib/thumb\libc.a(lib_a-locale.o)
 .debug_ranges  0x000002e0       0x18 d:/gcc-arm-none-eabi/bin/../lib/gcc/arm-none-eabi/4.9.3/../../../../arm-none-eabi/lib/thumb\libc.a(lib_a-malloc.o)
 .debug_ranges  0x000002f8       0x48 d:/gcc-arm-none-eabi/bin/../lib/gcc/arm-none-eabi/4.9.3/../../../../arm-none-eabi/lib/thumb\libc.a(lib_a-mallocr.o)
 .debug_ranges  0x00000340       0x10 d:/gcc-arm-none-eabi/bin/../lib/gcc/arm-none-eabi/4.9.3/../../../../arm-none-eabi/lib/thumb\libc.a(lib_a-memchr.o)
 .debug_ranges  0x00000350       0x18 d:/gcc-arm-none-eabi/bin/../lib/gcc/arm-none-eabi/4.9.3/../../../../arm-none-eabi/lib/thumb\libc.a(lib_a-mlock.o)
 .debug_ranges  0x00000368      0x140 d:/gcc-arm-none-eabi/bin/../lib/gcc/arm-none-eabi/4.9.3/../../../../arm-none-eabi/lib/thumb\libc.a(lib_a-mprec.o)
 .debug_ranges  0x000004a8       0x10 d:/gcc-arm-none-eabi/bin/../lib/gcc/arm-none-eabi/4.9.3/../../../../arm-none-eabi/lib/thumb\libc.a(lib_a-s_fpclassify.o)
 .debug_ranges  0x000004b8       0x10 d:/gcc-arm-none-eabi/bin/../lib/gcc/arm-none-eabi/4.9.3/../../../../arm-none-eabi/lib/thumb\libc.a(lib_a-s_frexp.o)
 .debug_ranges  0x000004c8       0x10 d:/gcc-arm-none-eabi/bin/../lib/gcc/arm-none-eabi/4.9.3/../../../../arm-none-eabi/lib/thumb\libc.a(lib_a-strncpy.o)
 .debug_ranges  0x000004d8       0x88 d:/gcc-arm-none-eabi/bin/../lib/gcc/arm-none-eabi/4.9.3/../../../../arm-none-eabi/lib/thumb\libc.a(lib_a-svfiprintf.o)
 .debug_ranges  0x00000560       0x50 d:/gcc-arm-none-eabi/bin/../lib/gcc/arm-none-eabi/4.9.3/../../../../arm-none-eabi/lib/thumb\libc.a(lib_a-callocr.o)
 .debug_ranges  0x000005b0       0x10 d:/gcc-arm-none-eabi/bin/../lib/gcc/arm-none-eabi/4.9.3/../../../../arm-none-eabi/lib/thumb\libc.a(lib_a-memmove.o)
 .debug_ranges  0x000005c0      0x148 d:/gcc-arm-none-eabi/bin/../lib/gcc/arm-none-eabi/4.9.3/../../../../arm-none-eabi/lib/thumb\libc.a(lib_a-reallocr.o)
 .debug_ranges  0x00000708       0x28 d:/gcc-arm-none-eabi/bin/../lib/gcc/arm-none-eabi/4.9.3/thumb\libgcc.a(_muldi3.o)
 .debug_ranges  0x00000730       0x18 d:/gcc-arm-none-eabi/bin/../lib/gcc/arm-none-eabi/4.9.3/thumb\libgcc.a(_divdi3.o)
 .debug_ranges  0x00000748       0x18 d:/gcc-arm-none-eabi/bin/../lib/gcc/arm-none-eabi/4.9.3/thumb\libgcc.a(_udivdi3.o)

Cross Reference Table

Symbol                                            File
ADC_IRQHandler                                    Src/stm32f10x_it.o
                                                  STLibrary/src/stm32f10x_vector.o
BusFaultException                                 Src/stm32f10x_it.o
                                                  STLibrary/src/stm32f10x_vector.o
CAN_RX1_IRQHandler                                Src/stm32f10x_it.o
                                                  STLibrary/src/stm32f10x_vector.o
CAN_SCE_IRQHandler                                Src/stm32f10x_it.o
                                                  STLibrary/src/stm32f10x_vector.o
Clean_All_Rcc_Register                            Src/Stm32l_level.o
ClrBit                                            Src/Lcd3310.o
Connect_2String_With_Value                        Src/StringsConv.o
Convert_2_String                                  Src/StringsConv.o
Convert_Float_2_Two_Int_Value                     Src/StringsConv.o
Convert_Int_2_String                              Src/StringsConv.o
DMAChannel1_IRQHandler                            Src/stm32f10x_it.o
                                                  STLibrary/src/stm32f10x_vector.o
DMAChannel2_IRQHandler                            Src/stm32f10x_it.o
                                                  STLibrary/src/stm32f10x_vector.o
DMAChannel3_IRQHandler                            Src/stm32f10x_it.o
                                                  STLibrary/src/stm32f10x_vector.o
DMAChannel4_IRQHandler                            Src/stm32f10x_it.o
                                                  STLibrary/src/stm32f10x_vector.o
DMAChannel5_IRQHandler                            Src/stm32f10x_it.o
                                                  STLibrary/src/stm32f10x_vector.o
DMAChannel6_IRQHandler                            Src/stm32f10x_it.o
                                                  STLibrary/src/stm32f10x_vector.o
DMAChannel7_IRQHandler                            Src/stm32f10x_it.o
                                                  STLibrary/src/stm32f10x_vector.o
DebugMonitor                                      Src/stm32f10x_it.o
                                                  STLibrary/src/stm32f10x_vector.o
Dec_2_Hex                                         Src/StringsConv.o
Delay                                             Src/Lcd3310.o
EXTI0_IRQHandler                                  Src/stm32f10x_it.o
                                                  STLibrary/src/stm32f10x_vector.o
EXTI15_10_IRQHandler                              Src/stm32f10x_it.o
                                                  STLibrary/src/stm32f10x_vector.o
EXTI1_IRQHandler                                  Src/stm32f10x_it.o
                                                  STLibrary/src/stm32f10x_vector.o
EXTI2_IRQHandler                                  Src/stm32f10x_it.o
                                                  STLibrary/src/stm32f10x_vector.o
EXTI3_IRQHandler                                  Src/stm32f10x_it.o
                                                  STLibrary/src/stm32f10x_vector.o
EXTI4_IRQHandler                                  Src/stm32f10x_it.o
                                                  STLibrary/src/stm32f10x_vector.o
EXTI9_5_IRQHandler                                Src/stm32f10x_it.o
                                                  STLibrary/src/stm32f10x_vector.o
Enable_External_Clock                             Src/Stm32l_level.o
FLASH_IRQHandler                                  Src/stm32f10x_it.o
                                                  STLibrary/src/stm32f10x_vector.o
GPIO_AFIODeInit                                   STLibrary/src/stm32f10x_gpio.o
GPIO_DeInit                                       STLibrary/src/stm32f10x_gpio.o
GPIO_EXTILineConfig                               STLibrary/src/stm32f10x_gpio.o
GPIO_EventOutputCmd                               STLibrary/src/stm32f10x_gpio.o
GPIO_EventOutputConfig                            STLibrary/src/stm32f10x_gpio.o
GPIO_Init                                         STLibrary/src/stm32f10x_gpio.o
GPIO_PinLockConfig                                STLibrary/src/stm32f10x_gpio.o
GPIO_PinRemapConfig                               STLibrary/src/stm32f10x_gpio.o
GPIO_ReadInputData                                STLibrary/src/stm32f10x_gpio.o
GPIO_ReadInputDataBit                             STLibrary/src/stm32f10x_gpio.o
GPIO_ReadOutputData                               STLibrary/src/stm32f10x_gpio.o
GPIO_ReadOutputDataBit                            STLibrary/src/stm32f10x_gpio.o
GPIO_ResetBits                                    STLibrary/src/stm32f10x_gpio.o
GPIO_SetBits                                      STLibrary/src/stm32f10x_gpio.o
GPIO_StructInit                                   STLibrary/src/stm32f10x_gpio.o
GPIO_Write                                        STLibrary/src/stm32f10x_gpio.o
GPIO_WriteBit                                     STLibrary/src/stm32f10x_gpio.o
Gpio_Configure                                    Src/Stm32l_level.o
HardFaultException                                Src/stm32f10x_it.o
                                                  STLibrary/src/stm32f10x_vector.o
I2C1_ER_IRQHandler                                Src/stm32f10x_it.o
                                                  STLibrary/src/stm32f10x_vector.o
I2C1_EV_IRQHandler                                Src/stm32f10x_it.o
                                                  STLibrary/src/stm32f10x_vector.o
I2C2_ER_IRQHandler                                Src/stm32f10x_it.o
                                                  STLibrary/src/stm32f10x_vector.o
I2C2_EV_IRQHandler                                Src/stm32f10x_it.o
                                                  STLibrary/src/stm32f10x_vector.o
LCD_Clear                                         Src/Lcd3310.o
LCD_GotoXY                                        Src/Lcd3310.o
LCD_Init                                          Src/Lcd3310.o
LCD_WriteChar                                     Src/Lcd3310.o
LCD_WriteCmd                                      Src/Lcd3310.o
LCD_WriteData                                     Src/Lcd3310.o
LCD_update                                        Src/Lcd3310.o
Led_1                                             Src/Stm32l_level.o
Led_2                                             Src/Stm32l_level.o
Low_Level_Initialize                              Src/Stm32l_level.o
MemManageException                                Src/stm32f10x_it.o
                                                  STLibrary/src/stm32f10x_vector.o
NMIException                                      Src/stm32f10x_it.o
                                                  STLibrary/src/stm32f10x_vector.o
NVIC_BASEPRICONFIG                                STLibrary/src/stm32f10x_nvic.o
NVIC_ClearIRQChannelPendingBit                    STLibrary/src/stm32f10x_nvic.o
NVIC_ClearSystemHandlerPendingBit                 STLibrary/src/stm32f10x_nvic.o
NVIC_DeInit                                       STLibrary/src/stm32f10x_nvic.o
NVIC_GenerateCoreReset                            STLibrary/src/stm32f10x_nvic.o
NVIC_GenerateSystemReset                          STLibrary/src/stm32f10x_nvic.o
NVIC_GetBASEPRI                                   STLibrary/src/stm32f10x_nvic.o
NVIC_GetCPUID                                     STLibrary/src/stm32f10x_nvic.o
NVIC_GetCurrentActiveHandler                      STLibrary/src/stm32f10x_nvic.o
NVIC_GetCurrentPendingIRQChannel                  STLibrary/src/stm32f10x_nvic.o
NVIC_GetFaultAddress                              STLibrary/src/stm32f10x_nvic.o
NVIC_GetFaultHandlerSources                       STLibrary/src/stm32f10x_nvic.o
NVIC_GetIRQChannelActiveBitStatus                 STLibrary/src/stm32f10x_nvic.o
NVIC_GetIRQChannelPendingBitStatus                STLibrary/src/stm32f10x_nvic.o
NVIC_GetSystemHandlerActiveBitStatus              STLibrary/src/stm32f10x_nvic.o
NVIC_GetSystemHandlerPendingBitStatus             STLibrary/src/stm32f10x_nvic.o
NVIC_Init                                         STLibrary/src/stm32f10x_nvic.o
                                                  Src/timertest.o
NVIC_PriorityGroupConfig                          STLibrary/src/stm32f10x_nvic.o
                                                  Src/main.o
NVIC_RESETFAULTMASK                               STLibrary/src/stm32f10x_nvic.o
NVIC_RESETPRIMASK                                 STLibrary/src/stm32f10x_nvic.o
NVIC_SCBDeInit                                    STLibrary/src/stm32f10x_nvic.o
NVIC_SETFAULTMASK                                 STLibrary/src/stm32f10x_nvic.o
NVIC_SETPRIMASK                                   STLibrary/src/stm32f10x_nvic.o
NVIC_SetIRQChannelPendingBit                      STLibrary/src/stm32f10x_nvic.o
NVIC_SetSystemHandlerPendingBit                   STLibrary/src/stm32f10x_nvic.o
NVIC_SetVectorTable                               STLibrary/src/stm32f10x_nvic.o
                                                  Src/main.o
NVIC_StructInit                                   STLibrary/src/stm32f10x_nvic.o
NVIC_SystemHandlerConfig                          STLibrary/src/stm32f10x_nvic.o
NVIC_SystemHandlerPriorityConfig                  STLibrary/src/stm32f10x_nvic.o
NVIC_SystemLPConfig                               STLibrary/src/stm32f10x_nvic.o
PVD_IRQHandler                                    Src/stm32f10x_it.o
                                                  STLibrary/src/stm32f10x_vector.o
RCC_ADCCLKConfig                                  STLibrary/src/stm32f10x_rcc.o
RCC_AHBPeriphClockCmd                             STLibrary/src/stm32f10x_rcc.o
RCC_APB1PeriphClockCmd                            STLibrary/src/stm32f10x_rcc.o
                                                  Src/timertest.o
RCC_APB1PeriphResetCmd                            STLibrary/src/stm32f10x_rcc.o
                                                  STLibrary/src/stm32f10x_tim.o
RCC_APB2PeriphClockCmd                            STLibrary/src/stm32f10x_rcc.o
                                                  Src/main.o
RCC_APB2PeriphResetCmd                            STLibrary/src/stm32f10x_rcc.o
                                                  STLibrary/src/stm32f10x_tim.o
                                                  STLibrary/src/stm32f10x_gpio.o
RCC_AdjustHSICalibrationValue                     STLibrary/src/stm32f10x_rcc.o
RCC_BackupResetCmd                                STLibrary/src/stm32f10x_rcc.o
RCC_ClearFlag                                     STLibrary/src/stm32f10x_rcc.o
RCC_ClearITPendingBit                             STLibrary/src/stm32f10x_rcc.o
RCC_ClockSecuritySystemCmd                        STLibrary/src/stm32f10x_rcc.o
RCC_DeInit                                        STLibrary/src/stm32f10x_rcc.o
                                                  Src/main.o
RCC_GetClocksFreq                                 STLibrary/src/stm32f10x_rcc.o
RCC_GetFlagStatus                                 STLibrary/src/stm32f10x_rcc.o
                                                  Src/main.o
RCC_GetITStatus                                   STLibrary/src/stm32f10x_rcc.o
RCC_GetSYSCLKSource                               STLibrary/src/stm32f10x_rcc.o
                                                  Src/main.o
RCC_HCLKConfig                                    STLibrary/src/stm32f10x_rcc.o
                                                  Src/main.o
RCC_HSEConfig                                     STLibrary/src/stm32f10x_rcc.o
                                                  Src/main.o
RCC_HSICmd                                        STLibrary/src/stm32f10x_rcc.o
RCC_IRQHandler                                    Src/stm32f10x_it.o
                                                  STLibrary/src/stm32f10x_vector.o
RCC_ITConfig                                      STLibrary/src/stm32f10x_rcc.o
RCC_LSEConfig                                     STLibrary/src/stm32f10x_rcc.o
RCC_LSICmd                                        STLibrary/src/stm32f10x_rcc.o
RCC_MCOConfig                                     STLibrary/src/stm32f10x_rcc.o
RCC_PCLK1Config                                   STLibrary/src/stm32f10x_rcc.o
                                                  Src/main.o
RCC_PCLK2Config                                   STLibrary/src/stm32f10x_rcc.o
                                                  Src/main.o
RCC_PLLCmd                                        STLibrary/src/stm32f10x_rcc.o
                                                  Src/main.o
RCC_PLLConfig                                     STLibrary/src/stm32f10x_rcc.o
                                                  Src/main.o
RCC_RTCCLKCmd                                     STLibrary/src/stm32f10x_rcc.o
RCC_RTCCLKConfig                                  STLibrary/src/stm32f10x_rcc.o
RCC_SYSCLKConfig                                  STLibrary/src/stm32f10x_rcc.o
                                                  Src/main.o
RCC_USBCLKConfig                                  STLibrary/src/stm32f10x_rcc.o
RCC_WaitForHSEStartUp                             STLibrary/src/stm32f10x_rcc.o
RTCAlarm_IRQHandler                               Src/stm32f10x_it.o
                                                  STLibrary/src/stm32f10x_vector.o
RTC_IRQHandler                                    Src/stm32f10x_it.o
                                                  STLibrary/src/stm32f10x_vector.o
Rccu_Configure                                    Src/Stm32l_level.o
Read_Tamp_Button                                  Src/Stm32l_level.o
Read_Wkup_Button                                  Src/Stm32l_level.o
Reset_Handler                                     STLibrary/src/stm32f10x_vector.o
SPI1_IRQHandler                                   Src/stm32f10x_it.o
                                                  STLibrary/src/stm32f10x_vector.o
SPI2_IRQHandler                                   Src/stm32f10x_it.o
                                                  STLibrary/src/stm32f10x_vector.o
SetBit                                            Src/Lcd3310.o
String_Width                                      Src/StringsConv.o
SysTick_CLKSourceConfig                           STLibrary/src/stm32f10x_systick.o
                                                  Src/main.o
SysTick_CounterCmd                                STLibrary/src/stm32f10x_systick.o
SysTick_GetCounter                                STLibrary/src/stm32f10x_systick.o
SysTick_GetFlagStatus                             STLibrary/src/stm32f10x_systick.o
SysTick_ITConfig                                  STLibrary/src/stm32f10x_systick.o
SysTick_SetReload                                 STLibrary/src/stm32f10x_systick.o
TAMPER_IRQHandler                                 Src/stm32f10x_it.o
                                                  STLibrary/src/stm32f10x_vector.o
TIM1_BRK_IRQHandler                               Src/stm32f10x_it.o
                                                  STLibrary/src/stm32f10x_vector.o
TIM1_CC_IRQHandler                                Src/stm32f10x_it.o
                                                  STLibrary/src/stm32f10x_vector.o
TIM1_TRG_COM_IRQHandler                           Src/stm32f10x_it.o
                                                  STLibrary/src/stm32f10x_vector.o
TIM1_UP_IRQHandler                                Src/stm32f10x_it.o
                                                  STLibrary/src/stm32f10x_vector.o
TIM2_IRQHandler                                   Src/timertest.o
                                                  STLibrary/src/stm32f10x_vector.o
TIM3_IRQHandler                                   Src/stm32f10x_it.o
                                                  STLibrary/src/stm32f10x_vector.o
TIM4_IRQHandler                                   Src/stm32f10x_it.o
                                                  STLibrary/src/stm32f10x_vector.o
TIM_ARRPreloadConfig                              STLibrary/src/stm32f10x_tim.o
                                                  Src/timertest.o
TIM_BDTRConfig                                    STLibrary/src/stm32f10x_tim.o
TIM_BDTRStructInit                                STLibrary/src/stm32f10x_tim.o
TIM_CCPreloadControl                              STLibrary/src/stm32f10x_tim.o
TIM_CCxCmd                                        STLibrary/src/stm32f10x_tim.o
TIM_CCxNCmd                                       STLibrary/src/stm32f10x_tim.o
TIM_ClearFlag                                     STLibrary/src/stm32f10x_tim.o
TIM_ClearITPendingBit                             STLibrary/src/stm32f10x_tim.o
                                                  Src/timertest.o
TIM_ClearOC1Ref                                   STLibrary/src/stm32f10x_tim.o
TIM_ClearOC2Ref                                   STLibrary/src/stm32f10x_tim.o
TIM_ClearOC3Ref                                   STLibrary/src/stm32f10x_tim.o
TIM_ClearOC4Ref                                   STLibrary/src/stm32f10x_tim.o
TIM_Cmd                                           STLibrary/src/stm32f10x_tim.o
                                                  Src/timertest.o
TIM_CounterModeConfig                             STLibrary/src/stm32f10x_tim.o
TIM_CtrlPWMOutputs                                STLibrary/src/stm32f10x_tim.o
TIM_DMACmd                                        STLibrary/src/stm32f10x_tim.o
TIM_DMAConfig                                     STLibrary/src/stm32f10x_tim.o
TIM_DeInit                                        STLibrary/src/stm32f10x_tim.o
                                                  Src/timertest.o
TIM_ETRClockMode1Config                           STLibrary/src/stm32f10x_tim.o
TIM_ETRClockMode2Config                           STLibrary/src/stm32f10x_tim.o
TIM_ETRConfig                                     STLibrary/src/stm32f10x_tim.o
TIM_EncoderInterfaceConfig                        STLibrary/src/stm32f10x_tim.o
TIM_ForcedOC1Config                               STLibrary/src/stm32f10x_tim.o
TIM_ForcedOC2Config                               STLibrary/src/stm32f10x_tim.o
TIM_ForcedOC3Config                               STLibrary/src/stm32f10x_tim.o
TIM_ForcedOC4Config                               STLibrary/src/stm32f10x_tim.o
TIM_GenerateEvent                                 STLibrary/src/stm32f10x_tim.o
TIM_GetCapture1                                   STLibrary/src/stm32f10x_tim.o
TIM_GetCapture2                                   STLibrary/src/stm32f10x_tim.o
TIM_GetCapture3                                   STLibrary/src/stm32f10x_tim.o
TIM_GetCapture4                                   STLibrary/src/stm32f10x_tim.o
TIM_GetCounter                                    STLibrary/src/stm32f10x_tim.o
TIM_GetFlagStatus                                 STLibrary/src/stm32f10x_tim.o
TIM_GetITStatus                                   STLibrary/src/stm32f10x_tim.o
TIM_GetPrescaler                                  STLibrary/src/stm32f10x_tim.o
TIM_ICInit                                        STLibrary/src/stm32f10x_tim.o
TIM_ICStructInit                                  STLibrary/src/stm32f10x_tim.o
TIM_ITConfig                                      STLibrary/src/stm32f10x_tim.o
                                                  Src/timertest.o
TIM_ITRxExternalClockConfig                       STLibrary/src/stm32f10x_tim.o
TIM_InternalClockConfig                           STLibrary/src/stm32f10x_tim.o
TIM_OC1FastConfig                                 STLibrary/src/stm32f10x_tim.o
TIM_OC1Init                                       STLibrary/src/stm32f10x_tim.o
TIM_OC1NPolarityConfig                            STLibrary/src/stm32f10x_tim.o
TIM_OC1PolarityConfig                             STLibrary/src/stm32f10x_tim.o
TIM_OC1PreloadConfig                              STLibrary/src/stm32f10x_tim.o
TIM_OC2FastConfig                                 STLibrary/src/stm32f10x_tim.o
TIM_OC2Init                                       STLibrary/src/stm32f10x_tim.o
TIM_OC2NPolarityConfig                            STLibrary/src/stm32f10x_tim.o
TIM_OC2PolarityConfig                             STLibrary/src/stm32f10x_tim.o
TIM_OC2PreloadConfig                              STLibrary/src/stm32f10x_tim.o
TIM_OC3FastConfig                                 STLibrary/src/stm32f10x_tim.o
TIM_OC3Init                                       STLibrary/src/stm32f10x_tim.o
TIM_OC3NPolarityConfig                            STLibrary/src/stm32f10x_tim.o
TIM_OC3PolarityConfig                             STLibrary/src/stm32f10x_tim.o
TIM_OC3PreloadConfig                              STLibrary/src/stm32f10x_tim.o
TIM_OC4FastConfig                                 STLibrary/src/stm32f10x_tim.o
TIM_OC4Init                                       STLibrary/src/stm32f10x_tim.o
TIM_OC4PolarityConfig                             STLibrary/src/stm32f10x_tim.o
TIM_OC4PreloadConfig                              STLibrary/src/stm32f10x_tim.o
TIM_OCStructInit                                  STLibrary/src/stm32f10x_tim.o
TIM_PWMIConfig                                    STLibrary/src/stm32f10x_tim.o
TIM_PrescalerConfig                               STLibrary/src/stm32f10x_tim.o
TIM_SelectCCDMA                                   STLibrary/src/stm32f10x_tim.o
TIM_SelectCOM                                     STLibrary/src/stm32f10x_tim.o
TIM_SelectHallSensor                              STLibrary/src/stm32f10x_tim.o
TIM_SelectInputTrigger                            STLibrary/src/stm32f10x_tim.o
TIM_SelectMasterSlaveMode                         STLibrary/src/stm32f10x_tim.o
TIM_SelectOCxM                                    STLibrary/src/stm32f10x_tim.o
TIM_SelectOnePulseMode                            STLibrary/src/stm32f10x_tim.o
TIM_SelectOutputTrigger                           STLibrary/src/stm32f10x_tim.o
TIM_SelectSlaveMode                               STLibrary/src/stm32f10x_tim.o
TIM_SetAutoreload                                 STLibrary/src/stm32f10x_tim.o
TIM_SetClockDivision                              STLibrary/src/stm32f10x_tim.o
TIM_SetCompare1                                   STLibrary/src/stm32f10x_tim.o
TIM_SetCompare2                                   STLibrary/src/stm32f10x_tim.o
TIM_SetCompare3                                   STLibrary/src/stm32f10x_tim.o
TIM_SetCompare4                                   STLibrary/src/stm32f10x_tim.o
TIM_SetCounter                                    STLibrary/src/stm32f10x_tim.o
TIM_SetIC1Prescaler                               STLibrary/src/stm32f10x_tim.o
TIM_SetIC2Prescaler                               STLibrary/src/stm32f10x_tim.o
TIM_SetIC3Prescaler                               STLibrary/src/stm32f10x_tim.o
TIM_SetIC4Prescaler                               STLibrary/src/stm32f10x_tim.o
TIM_TIxExternalClockConfig                        STLibrary/src/stm32f10x_tim.o
TIM_TimeBaseInit                                  STLibrary/src/stm32f10x_tim.o
                                                  Src/timertest.o
TIM_TimeBaseStructInit                            STLibrary/src/stm32f10x_tim.o
                                                  Src/timertest.o
TIM_UpdateDisableConfig                           STLibrary/src/stm32f10x_tim.o
TIM_UpdateRequestConfig                           STLibrary/src/stm32f10x_tim.o
USART1_IRQHandler                                 Src/stm32f10x_it.o
                                                  STLibrary/src/stm32f10x_vector.o
USART2_IRQHandler                                 Src/stm32f10x_it.o
                                                  STLibrary/src/stm32f10x_vector.o
USART3_IRQHandler                                 Src/stm32f10x_it.o
                                                  STLibrary/src/stm32f10x_vector.o
USBWakeUp_IRQHandler                              Src/stm32f10x_it.o
                                                  STLibrary/src/stm32f10x_vector.o
USB_HP_CAN_TX_IRQHandler                          Src/stm32f10x_it.o
                                                  STLibrary/src/stm32f10x_vector.o
USB_LP_CAN_RX0_IRQHandler                         Src/stm32f10x_it.o
                                                  STLibrary/src/stm32f10x_vector.o
UsageFaultException                               Src/stm32f10x_it.o
                                                  STLibrary/src/stm32f10x_vector.o
WWDG_IRQHandler                                   Src/stm32f10x_it.o
                                                  STLibrary/src/stm32f10x_vector.o
WriteSPI                                          Src/Lcd3310.o
_Balloc                                           d:/gcc-arm-none-eabi/bin/../lib/gcc/arm-none-eabi/4.9.3/../../../../arm-none-eabi/lib/thumb\libc.a(lib_a-mprec.o)
                                                  d:/gcc-arm-none-eabi/bin/../lib/gcc/arm-none-eabi/4.9.3/../../../../arm-none-eabi/lib/thumb\libc.a(lib_a-dtoa.o)
_Bfree                                            d:/gcc-arm-none-eabi/bin/../lib/gcc/arm-none-eabi/4.9.3/../../../../arm-none-eabi/lib/thumb\libc.a(lib_a-mprec.o)
                                                  d:/gcc-arm-none-eabi/bin/../lib/gcc/arm-none-eabi/4.9.3/../../../../arm-none-eabi/lib/thumb\libc.a(lib_a-dtoa.o)
_Jv_RegisterClasses                               d:/gcc-arm-none-eabi/bin/../lib/gcc/arm-none-eabi/4.9.3/thumb/crtbegin.o
_PathLocale                                       d:/gcc-arm-none-eabi/bin/../lib/gcc/arm-none-eabi/4.9.3/../../../../arm-none-eabi/lib/thumb\libc.a(lib_a-locale.o)
_Sprint_f                                         Src/StringsConv.o
__BASEPRICONFIG                                   STLibrary/src/cortexm3_macro.o
                                                  STLibrary/src/stm32f10x_nvic.o
__DMB                                             STLibrary/src/cortexm3_macro.o
__DSB                                             STLibrary/src/cortexm3_macro.o
__GetBASEPRI                                      STLibrary/src/cortexm3_macro.o
                                                  STLibrary/src/stm32f10x_nvic.o
__ISB                                             STLibrary/src/cortexm3_macro.o
__MRS_CONTROL                                     STLibrary/src/cortexm3_macro.o
__MRS_MSP                                         STLibrary/src/cortexm3_macro.o
__MRS_PSP                                         STLibrary/src/cortexm3_macro.o
__MSR_CONTROL                                     STLibrary/src/cortexm3_macro.o
__MSR_MSP                                         STLibrary/src/cortexm3_macro.o
__MSR_PSP                                         STLibrary/src/cortexm3_macro.o
__RESETFAULTMASK                                  STLibrary/src/cortexm3_macro.o
                                                  STLibrary/src/stm32f10x_nvic.o
__RESETPRIMASK                                    STLibrary/src/cortexm3_macro.o
                                                  STLibrary/src/stm32f10x_nvic.o
__REV_HalfWord                                    STLibrary/src/cortexm3_macro.o
__REV_Word                                        STLibrary/src/cortexm3_macro.o
__SETFAULTMASK                                    STLibrary/src/cortexm3_macro.o
                                                  STLibrary/src/stm32f10x_nvic.o
__SETPRIMASK                                      STLibrary/src/cortexm3_macro.o
                                                  STLibrary/src/stm32f10x_nvic.o
__SEV                                             STLibrary/src/cortexm3_macro.o
__SVC                                             STLibrary/src/cortexm3_macro.o
__WFE                                             STLibrary/src/cortexm3_macro.o
__WFI                                             STLibrary/src/cortexm3_macro.o
__adddf3                                          d:/gcc-arm-none-eabi/bin/../lib/gcc/arm-none-eabi/4.9.3/thumb\libgcc.a(_arm_addsubdf3.o)
__addsf3                                          d:/gcc-arm-none-eabi/bin/../lib/gcc/arm-none-eabi/4.9.3/thumb\libgcc.a(_arm_addsubsf3.o)
__aeabi_cdcmpeq                                   d:/gcc-arm-none-eabi/bin/../lib/gcc/arm-none-eabi/4.9.3/thumb\libgcc.a(_arm_cmpdf2.o)
__aeabi_cdcmple                                   d:/gcc-arm-none-eabi/bin/../lib/gcc/arm-none-eabi/4.9.3/thumb\libgcc.a(_arm_cmpdf2.o)
__aeabi_cdrcmple                                  d:/gcc-arm-none-eabi/bin/../lib/gcc/arm-none-eabi/4.9.3/thumb\libgcc.a(_arm_cmpdf2.o)
__aeabi_d2iz                                      d:/gcc-arm-none-eabi/bin/../lib/gcc/arm-none-eabi/4.9.3/thumb\libgcc.a(_arm_fixdfsi.o)
                                                  d:/gcc-arm-none-eabi/bin/../lib/gcc/arm-none-eabi/4.9.3/../../../../arm-none-eabi/lib/thumb\libc.a(lib_a-dtoa.o)
                                                  d:/gcc-arm-none-eabi/bin/../lib/gcc/arm-none-eabi/4.9.3/../../../../arm-none-eabi/lib/thumb\libc.a(lib_a-svfprintf.o)
__aeabi_dadd                                      d:/gcc-arm-none-eabi/bin/../lib/gcc/arm-none-eabi/4.9.3/thumb\libgcc.a(_arm_addsubdf3.o)
                                                  d:/gcc-arm-none-eabi/bin/../lib/gcc/arm-none-eabi/4.9.3/../../../../arm-none-eabi/lib/thumb\libc.a(lib_a-dtoa.o)
__aeabi_dcmpeq                                    d:/gcc-arm-none-eabi/bin/../lib/gcc/arm-none-eabi/4.9.3/thumb\libgcc.a(_arm_cmpdf2.o)
                                                  d:/gcc-arm-none-eabi/bin/../lib/gcc/arm-none-eabi/4.9.3/../../../../arm-none-eabi/lib/thumb\libc.a(lib_a-dtoa.o)
                                                  d:/gcc-arm-none-eabi/bin/../lib/gcc/arm-none-eabi/4.9.3/../../../../arm-none-eabi/lib/thumb\libc.a(lib_a-svfprintf.o)
__aeabi_dcmpge                                    d:/gcc-arm-none-eabi/bin/../lib/gcc/arm-none-eabi/4.9.3/thumb\libgcc.a(_arm_cmpdf2.o)
                                                  d:/gcc-arm-none-eabi/bin/../lib/gcc/arm-none-eabi/4.9.3/../../../../arm-none-eabi/lib/thumb\libc.a(lib_a-dtoa.o)
__aeabi_dcmpgt                                    d:/gcc-arm-none-eabi/bin/../lib/gcc/arm-none-eabi/4.9.3/thumb\libgcc.a(_arm_cmpdf2.o)
                                                  d:/gcc-arm-none-eabi/bin/../lib/gcc/arm-none-eabi/4.9.3/../../../../arm-none-eabi/lib/thumb\libc.a(lib_a-dtoa.o)
                                                  d:/gcc-arm-none-eabi/bin/../lib/gcc/arm-none-eabi/4.9.3/../../../../arm-none-eabi/lib/thumb\libc.a(lib_a-svfprintf.o)
__aeabi_dcmple                                    d:/gcc-arm-none-eabi/bin/../lib/gcc/arm-none-eabi/4.9.3/thumb\libgcc.a(_arm_cmpdf2.o)
__aeabi_dcmplt                                    d:/gcc-arm-none-eabi/bin/../lib/gcc/arm-none-eabi/4.9.3/thumb\libgcc.a(_arm_cmpdf2.o)
                                                  d:/gcc-arm-none-eabi/bin/../lib/gcc/arm-none-eabi/4.9.3/../../../../arm-none-eabi/lib/thumb\libc.a(lib_a-dtoa.o)
                                                  d:/gcc-arm-none-eabi/bin/../lib/gcc/arm-none-eabi/4.9.3/../../../../arm-none-eabi/lib/thumb\libc.a(lib_a-svfprintf.o)
__aeabi_ddiv                                      d:/gcc-arm-none-eabi/bin/../lib/gcc/arm-none-eabi/4.9.3/thumb\libgcc.a(_arm_muldivdf3.o)
                                                  d:/gcc-arm-none-eabi/bin/../lib/gcc/arm-none-eabi/4.9.3/../../../../arm-none-eabi/lib/thumb\libc.a(lib_a-mprec.o)
                                                  d:/gcc-arm-none-eabi/bin/../lib/gcc/arm-none-eabi/4.9.3/../../../../arm-none-eabi/lib/thumb\libc.a(lib_a-dtoa.o)
__aeabi_dmul                                      d:/gcc-arm-none-eabi/bin/../lib/gcc/arm-none-eabi/4.9.3/thumb\libgcc.a(_arm_muldivdf3.o)
                                                  d:/gcc-arm-none-eabi/bin/../lib/gcc/arm-none-eabi/4.9.3/../../../../arm-none-eabi/lib/thumb\libc.a(lib_a-s_frexp.o)
                                                  d:/gcc-arm-none-eabi/bin/../lib/gcc/arm-none-eabi/4.9.3/../../../../arm-none-eabi/lib/thumb\libc.a(lib_a-mprec.o)
                                                  d:/gcc-arm-none-eabi/bin/../lib/gcc/arm-none-eabi/4.9.3/../../../../arm-none-eabi/lib/thumb\libc.a(lib_a-dtoa.o)
                                                  d:/gcc-arm-none-eabi/bin/../lib/gcc/arm-none-eabi/4.9.3/../../../../arm-none-eabi/lib/thumb\libc.a(lib_a-svfprintf.o)
__aeabi_drsub                                     d:/gcc-arm-none-eabi/bin/../lib/gcc/arm-none-eabi/4.9.3/thumb\libgcc.a(_arm_addsubdf3.o)
__aeabi_dsub                                      d:/gcc-arm-none-eabi/bin/../lib/gcc/arm-none-eabi/4.9.3/thumb\libgcc.a(_arm_addsubdf3.o)
                                                  d:/gcc-arm-none-eabi/bin/../lib/gcc/arm-none-eabi/4.9.3/../../../../arm-none-eabi/lib/thumb\libc.a(lib_a-dtoa.o)
                                                  d:/gcc-arm-none-eabi/bin/../lib/gcc/arm-none-eabi/4.9.3/../../../../arm-none-eabi/lib/thumb\libc.a(lib_a-svfprintf.o)
__aeabi_f2d                                       d:/gcc-arm-none-eabi/bin/../lib/gcc/arm-none-eabi/4.9.3/thumb\libgcc.a(_arm_addsubdf3.o)
__aeabi_f2uiz                                     d:/gcc-arm-none-eabi/bin/../lib/gcc/arm-none-eabi/4.9.3/thumb\libgcc.a(_arm_fixunssfsi.o)
                                                  Src/StringsConv.o
__aeabi_fadd                                      d:/gcc-arm-none-eabi/bin/../lib/gcc/arm-none-eabi/4.9.3/thumb\libgcc.a(_arm_addsubsf3.o)
__aeabi_fdiv                                      d:/gcc-arm-none-eabi/bin/../lib/gcc/arm-none-eabi/4.9.3/thumb\libgcc.a(_arm_muldivsf3.o)
__aeabi_fmul                                      d:/gcc-arm-none-eabi/bin/../lib/gcc/arm-none-eabi/4.9.3/thumb\libgcc.a(_arm_muldivsf3.o)
                                                  Src/StringsConv.o
__aeabi_frsub                                     d:/gcc-arm-none-eabi/bin/../lib/gcc/arm-none-eabi/4.9.3/thumb\libgcc.a(_arm_addsubsf3.o)
__aeabi_fsub                                      d:/gcc-arm-none-eabi/bin/../lib/gcc/arm-none-eabi/4.9.3/thumb\libgcc.a(_arm_addsubsf3.o)
                                                  Src/StringsConv.o
__aeabi_i2d                                       d:/gcc-arm-none-eabi/bin/../lib/gcc/arm-none-eabi/4.9.3/thumb\libgcc.a(_arm_addsubdf3.o)
                                                  d:/gcc-arm-none-eabi/bin/../lib/gcc/arm-none-eabi/4.9.3/../../../../arm-none-eabi/lib/thumb\libc.a(lib_a-dtoa.o)
                                                  d:/gcc-arm-none-eabi/bin/../lib/gcc/arm-none-eabi/4.9.3/../../../../arm-none-eabi/lib/thumb\libc.a(lib_a-svfprintf.o)
__aeabi_i2f                                       d:/gcc-arm-none-eabi/bin/../lib/gcc/arm-none-eabi/4.9.3/thumb\libgcc.a(_arm_addsubsf3.o)
__aeabi_idiv                                      d:/gcc-arm-none-eabi/bin/../lib/gcc/arm-none-eabi/4.9.3/thumb\libgcc.a(_divsi3.o)
                                                  d:/gcc-arm-none-eabi/bin/../lib/gcc/arm-none-eabi/4.9.3/../../../../arm-none-eabi/lib/thumb\libc.a(lib_a-mprec.o)
                                                  d:/gcc-arm-none-eabi/bin/../lib/gcc/arm-none-eabi/4.9.3/../../../../arm-none-eabi/lib/thumb\libc.a(lib_a-svfprintf.o)
__aeabi_idiv0                                     d:/gcc-arm-none-eabi/bin/../lib/gcc/arm-none-eabi/4.9.3/thumb\libgcc.a(_dvmd_tls.o)
                                                  d:/gcc-arm-none-eabi/bin/../lib/gcc/arm-none-eabi/4.9.3/thumb\libgcc.a(_divsi3.o)
                                                  d:/gcc-arm-none-eabi/bin/../lib/gcc/arm-none-eabi/4.9.3/thumb\libgcc.a(_udivsi3.o)
__aeabi_idivmod                                   d:/gcc-arm-none-eabi/bin/../lib/gcc/arm-none-eabi/4.9.3/thumb\libgcc.a(_divsi3.o)
                                                  d:/gcc-arm-none-eabi/bin/../lib/gcc/arm-none-eabi/4.9.3/../../../../arm-none-eabi/lib/thumb\libc.a(lib_a-svfprintf.o)
__aeabi_l2d                                       d:/gcc-arm-none-eabi/bin/../lib/gcc/arm-none-eabi/4.9.3/thumb\libgcc.a(_arm_addsubdf3.o)
__aeabi_l2f                                       d:/gcc-arm-none-eabi/bin/../lib/gcc/arm-none-eabi/4.9.3/thumb\libgcc.a(_arm_addsubsf3.o)
__aeabi_ldiv0                                     d:/gcc-arm-none-eabi/bin/../lib/gcc/arm-none-eabi/4.9.3/thumb\libgcc.a(_dvmd_tls.o)
                                                  d:/gcc-arm-none-eabi/bin/../lib/gcc/arm-none-eabi/4.9.3/thumb\libgcc.a(_aeabi_uldivmod.o)
__aeabi_lmul                                      d:/gcc-arm-none-eabi/bin/../lib/gcc/arm-none-eabi/4.9.3/thumb\libgcc.a(_muldi3.o)
                                                  d:/gcc-arm-none-eabi/bin/../lib/gcc/arm-none-eabi/4.9.3/thumb\libgcc.a(bpabi.o)
__aeabi_ui2d                                      d:/gcc-arm-none-eabi/bin/../lib/gcc/arm-none-eabi/4.9.3/thumb\libgcc.a(_arm_addsubdf3.o)
                                                  d:/gcc-arm-none-eabi/bin/../lib/gcc/arm-none-eabi/4.9.3/../../../../arm-none-eabi/lib/thumb\libc.a(lib_a-dtoa.o)
__aeabi_ui2f                                      d:/gcc-arm-none-eabi/bin/../lib/gcc/arm-none-eabi/4.9.3/thumb\libgcc.a(_arm_addsubsf3.o)
                                                  Src/StringsConv.o
__aeabi_uidiv                                     d:/gcc-arm-none-eabi/bin/../lib/gcc/arm-none-eabi/4.9.3/thumb\libgcc.a(_udivsi3.o)
                                                  d:/gcc-arm-none-eabi/bin/../lib/gcc/arm-none-eabi/4.9.3/../../../../arm-none-eabi/lib/thumb\libc.a(lib_a-dtoa.o)
__aeabi_uidivmod                                  d:/gcc-arm-none-eabi/bin/../lib/gcc/arm-none-eabi/4.9.3/thumb\libgcc.a(_udivsi3.o)
__aeabi_ul2d                                      d:/gcc-arm-none-eabi/bin/../lib/gcc/arm-none-eabi/4.9.3/thumb\libgcc.a(_arm_addsubdf3.o)
__aeabi_ul2f                                      d:/gcc-arm-none-eabi/bin/../lib/gcc/arm-none-eabi/4.9.3/thumb\libgcc.a(_arm_addsubsf3.o)
__aeabi_uldivmod                                  d:/gcc-arm-none-eabi/bin/../lib/gcc/arm-none-eabi/4.9.3/thumb\libgcc.a(_aeabi_uldivmod.o)
                                                  d:/gcc-arm-none-eabi/bin/../lib/gcc/arm-none-eabi/4.9.3/../../../../arm-none-eabi/lib/thumb\libc.a(lib_a-svfiprintf.o)
                                                  d:/gcc-arm-none-eabi/bin/../lib/gcc/arm-none-eabi/4.9.3/../../../../arm-none-eabi/lib/thumb\libc.a(lib_a-svfprintf.o)
__any_on                                          d:/gcc-arm-none-eabi/bin/../lib/gcc/arm-none-eabi/4.9.3/../../../../arm-none-eabi/lib/thumb\libc.a(lib_a-mprec.o)
__b2d                                             d:/gcc-arm-none-eabi/bin/../lib/gcc/arm-none-eabi/4.9.3/../../../../arm-none-eabi/lib/thumb\libc.a(lib_a-mprec.o)
__bss_end__                                       d:/gcc-arm-none-eabi/bin/../lib/gcc/arm-none-eabi/4.9.3/../../../../arm-none-eabi/lib/thumb/crt0.o
__bss_start__                                     d:/gcc-arm-none-eabi/bin/../lib/gcc/arm-none-eabi/4.9.3/../../../../arm-none-eabi/lib/thumb/crt0.o
__call_exitprocs                                  d:/gcc-arm-none-eabi/bin/../lib/gcc/arm-none-eabi/4.9.3/../../../../arm-none-eabi/lib/thumb\libc.a(lib_a-__call_atexit.o)
                                                  d:/gcc-arm-none-eabi/bin/../lib/gcc/arm-none-eabi/4.9.3/../../../../arm-none-eabi/lib/thumb\libc.a(lib_a-exit.o)
__change_mode                                     d:/gcc-arm-none-eabi/bin/../lib/gcc/arm-none-eabi/4.9.3/../../../../arm-none-eabi/lib/thumb/crt0.o
__clzdi2                                          d:/gcc-arm-none-eabi/bin/../lib/gcc/arm-none-eabi/4.9.3/thumb\libgcc.a(_clzdi2.o)
                                                  d:/gcc-arm-none-eabi/bin/../lib/gcc/arm-none-eabi/4.9.3/thumb\libgcc.a(_udivdi3.o)
                                                  d:/gcc-arm-none-eabi/bin/../lib/gcc/arm-none-eabi/4.9.3/thumb\libgcc.a(_divdi3.o)
__clzsi2                                          d:/gcc-arm-none-eabi/bin/../lib/gcc/arm-none-eabi/4.9.3/thumb\libgcc.a(_clzsi2.o)
                                                  d:/gcc-arm-none-eabi/bin/../lib/gcc/arm-none-eabi/4.9.3/thumb\libgcc.a(_clzdi2.o)
__cmpdf2                                          d:/gcc-arm-none-eabi/bin/../lib/gcc/arm-none-eabi/4.9.3/thumb\libgcc.a(_arm_cmpdf2.o)
__copybits                                        d:/gcc-arm-none-eabi/bin/../lib/gcc/arm-none-eabi/4.9.3/../../../../arm-none-eabi/lib/thumb\libc.a(lib_a-mprec.o)
__d2b                                             d:/gcc-arm-none-eabi/bin/../lib/gcc/arm-none-eabi/4.9.3/../../../../arm-none-eabi/lib/thumb\libc.a(lib_a-mprec.o)
                                                  d:/gcc-arm-none-eabi/bin/../lib/gcc/arm-none-eabi/4.9.3/../../../../arm-none-eabi/lib/thumb\libc.a(lib_a-dtoa.o)
__deregister_frame_info                           d:/gcc-arm-none-eabi/bin/../lib/gcc/arm-none-eabi/4.9.3/thumb/crtbegin.o
__divdf3                                          d:/gcc-arm-none-eabi/bin/../lib/gcc/arm-none-eabi/4.9.3/thumb\libgcc.a(_arm_muldivdf3.o)
__divdi3                                          d:/gcc-arm-none-eabi/bin/../lib/gcc/arm-none-eabi/4.9.3/thumb\libgcc.a(_divdi3.o)
                                                  d:/gcc-arm-none-eabi/bin/../lib/gcc/arm-none-eabi/4.9.3/thumb\libgcc.a(bpabi.o)
__divsf3                                          d:/gcc-arm-none-eabi/bin/../lib/gcc/arm-none-eabi/4.9.3/thumb\libgcc.a(_arm_muldivsf3.o)
__divsi3                                          d:/gcc-arm-none-eabi/bin/../lib/gcc/arm-none-eabi/4.9.3/thumb\libgcc.a(_divsi3.o)
__dso_handle                                      d:/gcc-arm-none-eabi/bin/../lib/gcc/arm-none-eabi/4.9.3/thumb/crtbegin.o
__eqdf2                                           d:/gcc-arm-none-eabi/bin/../lib/gcc/arm-none-eabi/4.9.3/thumb\libgcc.a(_arm_cmpdf2.o)
__extendsfdf2                                     d:/gcc-arm-none-eabi/bin/../lib/gcc/arm-none-eabi/4.9.3/thumb\libgcc.a(_arm_addsubdf3.o)
__fixdfsi                                         d:/gcc-arm-none-eabi/bin/../lib/gcc/arm-none-eabi/4.9.3/thumb\libgcc.a(_arm_fixdfsi.o)
__fixunssfsi                                      d:/gcc-arm-none-eabi/bin/../lib/gcc/arm-none-eabi/4.9.3/thumb\libgcc.a(_arm_fixunssfsi.o)
__floatdidf                                       d:/gcc-arm-none-eabi/bin/../lib/gcc/arm-none-eabi/4.9.3/thumb\libgcc.a(_arm_addsubdf3.o)
__floatdisf                                       d:/gcc-arm-none-eabi/bin/../lib/gcc/arm-none-eabi/4.9.3/thumb\libgcc.a(_arm_addsubsf3.o)
__floatsidf                                       d:/gcc-arm-none-eabi/bin/../lib/gcc/arm-none-eabi/4.9.3/thumb\libgcc.a(_arm_addsubdf3.o)
__floatsisf                                       d:/gcc-arm-none-eabi/bin/../lib/gcc/arm-none-eabi/4.9.3/thumb\libgcc.a(_arm_addsubsf3.o)
__floatundidf                                     d:/gcc-arm-none-eabi/bin/../lib/gcc/arm-none-eabi/4.9.3/thumb\libgcc.a(_arm_addsubdf3.o)
__floatundisf                                     d:/gcc-arm-none-eabi/bin/../lib/gcc/arm-none-eabi/4.9.3/thumb\libgcc.a(_arm_addsubsf3.o)
__floatunsidf                                     d:/gcc-arm-none-eabi/bin/../lib/gcc/arm-none-eabi/4.9.3/thumb\libgcc.a(_arm_addsubdf3.o)
__floatunsisf                                     d:/gcc-arm-none-eabi/bin/../lib/gcc/arm-none-eabi/4.9.3/thumb\libgcc.a(_arm_addsubsf3.o)
__fpclassifyd                                     d:/gcc-arm-none-eabi/bin/../lib/gcc/arm-none-eabi/4.9.3/../../../../arm-none-eabi/lib/thumb\libc.a(lib_a-s_fpclassify.o)
                                                  d:/gcc-arm-none-eabi/bin/../lib/gcc/arm-none-eabi/4.9.3/../../../../arm-none-eabi/lib/thumb\libc.a(lib_a-svfprintf.o)
__gedf2                                           d:/gcc-arm-none-eabi/bin/../lib/gcc/arm-none-eabi/4.9.3/thumb\libgcc.a(_arm_cmpdf2.o)
__gnu_ldivmod_helper                              d:/gcc-arm-none-eabi/bin/../lib/gcc/arm-none-eabi/4.9.3/thumb\libgcc.a(bpabi.o)
__gnu_uldivmod_helper                             d:/gcc-arm-none-eabi/bin/../lib/gcc/arm-none-eabi/4.9.3/thumb\libgcc.a(bpabi.o)
                                                  d:/gcc-arm-none-eabi/bin/../lib/gcc/arm-none-eabi/4.9.3/thumb\libgcc.a(_aeabi_uldivmod.o)
__gtdf2                                           d:/gcc-arm-none-eabi/bin/../lib/gcc/arm-none-eabi/4.9.3/thumb\libgcc.a(_arm_cmpdf2.o)
__hi0bits                                         d:/gcc-arm-none-eabi/bin/../lib/gcc/arm-none-eabi/4.9.3/../../../../arm-none-eabi/lib/thumb\libc.a(lib_a-mprec.o)
                                                  d:/gcc-arm-none-eabi/bin/../lib/gcc/arm-none-eabi/4.9.3/../../../../arm-none-eabi/lib/thumb\libc.a(lib_a-dtoa.o)
__i2b                                             d:/gcc-arm-none-eabi/bin/../lib/gcc/arm-none-eabi/4.9.3/../../../../arm-none-eabi/lib/thumb\libc.a(lib_a-mprec.o)
                                                  d:/gcc-arm-none-eabi/bin/../lib/gcc/arm-none-eabi/4.9.3/../../../../arm-none-eabi/lib/thumb\libc.a(lib_a-dtoa.o)
__init_array_end                                  d:/gcc-arm-none-eabi/bin/../lib/gcc/arm-none-eabi/4.9.3/../../../../arm-none-eabi/lib/thumb\libc.a(lib_a-init.o)
__init_array_start                                d:/gcc-arm-none-eabi/bin/../lib/gcc/arm-none-eabi/4.9.3/../../../../arm-none-eabi/lib/thumb\libc.a(lib_a-init.o)
__ledf2                                           d:/gcc-arm-none-eabi/bin/../lib/gcc/arm-none-eabi/4.9.3/thumb\libgcc.a(_arm_cmpdf2.o)
__libc_fini_array                                 d:/gcc-arm-none-eabi/bin/../lib/gcc/arm-none-eabi/4.9.3/../../../../arm-none-eabi/lib/thumb/crt0.o
__libc_init_array                                 d:/gcc-arm-none-eabi/bin/../lib/gcc/arm-none-eabi/4.9.3/../../../../arm-none-eabi/lib/thumb\libc.a(lib_a-init.o)
                                                  d:/gcc-arm-none-eabi/bin/../lib/gcc/arm-none-eabi/4.9.3/../../../../arm-none-eabi/lib/thumb/crt0.o
__lo0bits                                         d:/gcc-arm-none-eabi/bin/../lib/gcc/arm-none-eabi/4.9.3/../../../../arm-none-eabi/lib/thumb\libc.a(lib_a-mprec.o)
__locale_charset                                  d:/gcc-arm-none-eabi/bin/../lib/gcc/arm-none-eabi/4.9.3/../../../../arm-none-eabi/lib/thumb\libc.a(lib_a-locale.o)
__locale_cjk_lang                                 d:/gcc-arm-none-eabi/bin/../lib/gcc/arm-none-eabi/4.9.3/../../../../arm-none-eabi/lib/thumb\libc.a(lib_a-locale.o)
__locale_mb_cur_max                               d:/gcc-arm-none-eabi/bin/../lib/gcc/arm-none-eabi/4.9.3/../../../../arm-none-eabi/lib/thumb\libc.a(lib_a-locale.o)
__locale_msgcharset                               d:/gcc-arm-none-eabi/bin/../lib/gcc/arm-none-eabi/4.9.3/../../../../arm-none-eabi/lib/thumb\libc.a(lib_a-locale.o)
__lshift                                          d:/gcc-arm-none-eabi/bin/../lib/gcc/arm-none-eabi/4.9.3/../../../../arm-none-eabi/lib/thumb\libc.a(lib_a-mprec.o)
                                                  d:/gcc-arm-none-eabi/bin/../lib/gcc/arm-none-eabi/4.9.3/../../../../arm-none-eabi/lib/thumb\libc.a(lib_a-dtoa.o)
__ltdf2                                           d:/gcc-arm-none-eabi/bin/../lib/gcc/arm-none-eabi/4.9.3/thumb\libgcc.a(_arm_cmpdf2.o)
__malloc_av_                                      d:/gcc-arm-none-eabi/bin/../lib/gcc/arm-none-eabi/4.9.3/../../../../arm-none-eabi/lib/thumb\libc.a(lib_a-mallocr.o)
                                                  d:/gcc-arm-none-eabi/bin/../lib/gcc/arm-none-eabi/4.9.3/../../../../arm-none-eabi/lib/thumb\libc.a(lib_a-reallocr.o)
                                                  d:/gcc-arm-none-eabi/bin/../lib/gcc/arm-none-eabi/4.9.3/../../../../arm-none-eabi/lib/thumb\libc.a(lib_a-freer.o)
__malloc_current_mallinfo                         d:/gcc-arm-none-eabi/bin/../lib/gcc/arm-none-eabi/4.9.3/../../../../arm-none-eabi/lib/thumb\libc.a(lib_a-mallocr.o)
                                                  d:/gcc-arm-none-eabi/bin/../lib/gcc/arm-none-eabi/4.9.3/../../../../arm-none-eabi/lib/thumb\libc.a(lib_a-freer.o)
__malloc_lock                                     d:/gcc-arm-none-eabi/bin/../lib/gcc/arm-none-eabi/4.9.3/../../../../arm-none-eabi/lib/thumb\libc.a(lib_a-mlock.o)
                                                  d:/gcc-arm-none-eabi/bin/../lib/gcc/arm-none-eabi/4.9.3/../../../../arm-none-eabi/lib/thumb\libc.a(lib_a-reallocr.o)
                                                  d:/gcc-arm-none-eabi/bin/../lib/gcc/arm-none-eabi/4.9.3/../../../../arm-none-eabi/lib/thumb\libc.a(lib_a-mallocr.o)
                                                  d:/gcc-arm-none-eabi/bin/../lib/gcc/arm-none-eabi/4.9.3/../../../../arm-none-eabi/lib/thumb\libc.a(lib_a-freer.o)
__malloc_max_sbrked_mem                           d:/gcc-arm-none-eabi/bin/../lib/gcc/arm-none-eabi/4.9.3/../../../../arm-none-eabi/lib/thumb\libc.a(lib_a-mallocr.o)
__malloc_max_total_mem                            d:/gcc-arm-none-eabi/bin/../lib/gcc/arm-none-eabi/4.9.3/../../../../arm-none-eabi/lib/thumb\libc.a(lib_a-mallocr.o)
__malloc_sbrk_base                                d:/gcc-arm-none-eabi/bin/../lib/gcc/arm-none-eabi/4.9.3/../../../../arm-none-eabi/lib/thumb\libc.a(lib_a-mallocr.o)
                                                  d:/gcc-arm-none-eabi/bin/../lib/gcc/arm-none-eabi/4.9.3/../../../../arm-none-eabi/lib/thumb\libc.a(lib_a-freer.o)
__malloc_top_pad                                  d:/gcc-arm-none-eabi/bin/../lib/gcc/arm-none-eabi/4.9.3/../../../../arm-none-eabi/lib/thumb\libc.a(lib_a-mallocr.o)
                                                  d:/gcc-arm-none-eabi/bin/../lib/gcc/arm-none-eabi/4.9.3/../../../../arm-none-eabi/lib/thumb\libc.a(lib_a-freer.o)
__malloc_trim_threshold                           d:/gcc-arm-none-eabi/bin/../lib/gcc/arm-none-eabi/4.9.3/../../../../arm-none-eabi/lib/thumb\libc.a(lib_a-mallocr.o)
                                                  d:/gcc-arm-none-eabi/bin/../lib/gcc/arm-none-eabi/4.9.3/../../../../arm-none-eabi/lib/thumb\libc.a(lib_a-freer.o)
__malloc_unlock                                   d:/gcc-arm-none-eabi/bin/../lib/gcc/arm-none-eabi/4.9.3/../../../../arm-none-eabi/lib/thumb\libc.a(lib_a-mlock.o)
                                                  d:/gcc-arm-none-eabi/bin/../lib/gcc/arm-none-eabi/4.9.3/../../../../arm-none-eabi/lib/thumb\libc.a(lib_a-reallocr.o)
                                                  d:/gcc-arm-none-eabi/bin/../lib/gcc/arm-none-eabi/4.9.3/../../../../arm-none-eabi/lib/thumb\libc.a(lib_a-mallocr.o)
                                                  d:/gcc-arm-none-eabi/bin/../lib/gcc/arm-none-eabi/4.9.3/../../../../arm-none-eabi/lib/thumb\libc.a(lib_a-freer.o)
__mb_cur_max                                      d:/gcc-arm-none-eabi/bin/../lib/gcc/arm-none-eabi/4.9.3/../../../../arm-none-eabi/lib/thumb\libc.a(lib_a-locale.o)
__mcmp                                            d:/gcc-arm-none-eabi/bin/../lib/gcc/arm-none-eabi/4.9.3/../../../../arm-none-eabi/lib/thumb\libc.a(lib_a-mprec.o)
                                                  d:/gcc-arm-none-eabi/bin/../lib/gcc/arm-none-eabi/4.9.3/../../../../arm-none-eabi/lib/thumb\libc.a(lib_a-dtoa.o)
__mdiff                                           d:/gcc-arm-none-eabi/bin/../lib/gcc/arm-none-eabi/4.9.3/../../../../arm-none-eabi/lib/thumb\libc.a(lib_a-mprec.o)
                                                  d:/gcc-arm-none-eabi/bin/../lib/gcc/arm-none-eabi/4.9.3/../../../../arm-none-eabi/lib/thumb\libc.a(lib_a-dtoa.o)
__mlocale_changed                                 d:/gcc-arm-none-eabi/bin/../lib/gcc/arm-none-eabi/4.9.3/../../../../arm-none-eabi/lib/thumb\libc.a(lib_a-locale.o)
__mprec_bigtens                                   d:/gcc-arm-none-eabi/bin/../lib/gcc/arm-none-eabi/4.9.3/../../../../arm-none-eabi/lib/thumb\libc.a(lib_a-mprec.o)
                                                  d:/gcc-arm-none-eabi/bin/../lib/gcc/arm-none-eabi/4.9.3/../../../../arm-none-eabi/lib/thumb\libc.a(lib_a-dtoa.o)
__mprec_tens                                      d:/gcc-arm-none-eabi/bin/../lib/gcc/arm-none-eabi/4.9.3/../../../../arm-none-eabi/lib/thumb\libc.a(lib_a-mprec.o)
                                                  d:/gcc-arm-none-eabi/bin/../lib/gcc/arm-none-eabi/4.9.3/../../../../arm-none-eabi/lib/thumb\libc.a(lib_a-dtoa.o)
__mprec_tinytens                                  d:/gcc-arm-none-eabi/bin/../lib/gcc/arm-none-eabi/4.9.3/../../../../arm-none-eabi/lib/thumb\libc.a(lib_a-mprec.o)
__muldf3                                          d:/gcc-arm-none-eabi/bin/../lib/gcc/arm-none-eabi/4.9.3/thumb\libgcc.a(_arm_muldivdf3.o)
__muldi3                                          d:/gcc-arm-none-eabi/bin/../lib/gcc/arm-none-eabi/4.9.3/thumb\libgcc.a(_muldi3.o)
__mulsf3                                          d:/gcc-arm-none-eabi/bin/../lib/gcc/arm-none-eabi/4.9.3/thumb\libgcc.a(_arm_muldivsf3.o)
__multadd                                         d:/gcc-arm-none-eabi/bin/../lib/gcc/arm-none-eabi/4.9.3/../../../../arm-none-eabi/lib/thumb\libc.a(lib_a-mprec.o)
                                                  d:/gcc-arm-none-eabi/bin/../lib/gcc/arm-none-eabi/4.9.3/../../../../arm-none-eabi/lib/thumb\libc.a(lib_a-dtoa.o)
__multiply                                        d:/gcc-arm-none-eabi/bin/../lib/gcc/arm-none-eabi/4.9.3/../../../../arm-none-eabi/lib/thumb\libc.a(lib_a-mprec.o)
                                                  d:/gcc-arm-none-eabi/bin/../lib/gcc/arm-none-eabi/4.9.3/../../../../arm-none-eabi/lib/thumb\libc.a(lib_a-dtoa.o)
__nedf2                                           d:/gcc-arm-none-eabi/bin/../lib/gcc/arm-none-eabi/4.9.3/thumb\libgcc.a(_arm_cmpdf2.o)
__nlocale_changed                                 d:/gcc-arm-none-eabi/bin/../lib/gcc/arm-none-eabi/4.9.3/../../../../arm-none-eabi/lib/thumb\libc.a(lib_a-locale.o)
__pow5mult                                        d:/gcc-arm-none-eabi/bin/../lib/gcc/arm-none-eabi/4.9.3/../../../../arm-none-eabi/lib/thumb\libc.a(lib_a-mprec.o)
                                                  d:/gcc-arm-none-eabi/bin/../lib/gcc/arm-none-eabi/4.9.3/../../../../arm-none-eabi/lib/thumb\libc.a(lib_a-dtoa.o)
__preinit_array_end                               d:/gcc-arm-none-eabi/bin/../lib/gcc/arm-none-eabi/4.9.3/../../../../arm-none-eabi/lib/thumb\libc.a(lib_a-init.o)
__preinit_array_start                             d:/gcc-arm-none-eabi/bin/../lib/gcc/arm-none-eabi/4.9.3/../../../../arm-none-eabi/lib/thumb\libc.a(lib_a-init.o)
__ratio                                           d:/gcc-arm-none-eabi/bin/../lib/gcc/arm-none-eabi/4.9.3/../../../../arm-none-eabi/lib/thumb\libc.a(lib_a-mprec.o)
__register_frame_info                             d:/gcc-arm-none-eabi/bin/../lib/gcc/arm-none-eabi/4.9.3/thumb/crtbegin.o
__s2b                                             d:/gcc-arm-none-eabi/bin/../lib/gcc/arm-none-eabi/4.9.3/../../../../arm-none-eabi/lib/thumb\libc.a(lib_a-mprec.o)
__sf_fake_stderr                                  d:/gcc-arm-none-eabi/bin/../lib/gcc/arm-none-eabi/4.9.3/../../../../arm-none-eabi/lib/thumb\libc.a(lib_a-impure.o)
__sf_fake_stdin                                   d:/gcc-arm-none-eabi/bin/../lib/gcc/arm-none-eabi/4.9.3/../../../../arm-none-eabi/lib/thumb\libc.a(lib_a-impure.o)
__sf_fake_stdout                                  d:/gcc-arm-none-eabi/bin/../lib/gcc/arm-none-eabi/4.9.3/../../../../arm-none-eabi/lib/thumb\libc.a(lib_a-impure.o)
__ssprint_r                                       d:/gcc-arm-none-eabi/bin/../lib/gcc/arm-none-eabi/4.9.3/../../../../arm-none-eabi/lib/thumb\libc.a(lib_a-svfiprintf.o)
__ssputs_r                                        d:/gcc-arm-none-eabi/bin/../lib/gcc/arm-none-eabi/4.9.3/../../../../arm-none-eabi/lib/thumb\libc.a(lib_a-svfiprintf.o)
                                                  d:/gcc-arm-none-eabi/bin/../lib/gcc/arm-none-eabi/4.9.3/../../../../arm-none-eabi/lib/thumb\libc.a(lib_a-svfprintf.o)
__stack                                           d:/gcc-arm-none-eabi/bin/../lib/gcc/arm-none-eabi/4.9.3/../../../../arm-none-eabi/lib/thumb/crt0.o
__subdf3                                          d:/gcc-arm-none-eabi/bin/../lib/gcc/arm-none-eabi/4.9.3/thumb\libgcc.a(_arm_addsubdf3.o)
__subsf3                                          d:/gcc-arm-none-eabi/bin/../lib/gcc/arm-none-eabi/4.9.3/thumb\libgcc.a(_arm_addsubsf3.o)
__udivdi3                                         d:/gcc-arm-none-eabi/bin/../lib/gcc/arm-none-eabi/4.9.3/thumb\libgcc.a(_udivdi3.o)
                                                  d:/gcc-arm-none-eabi/bin/../lib/gcc/arm-none-eabi/4.9.3/thumb\libgcc.a(bpabi.o)
__udivsi3                                         d:/gcc-arm-none-eabi/bin/../lib/gcc/arm-none-eabi/4.9.3/thumb\libgcc.a(_udivsi3.o)
__ulp                                             d:/gcc-arm-none-eabi/bin/../lib/gcc/arm-none-eabi/4.9.3/../../../../arm-none-eabi/lib/thumb\libc.a(lib_a-mprec.o)
_calloc_r                                         d:/gcc-arm-none-eabi/bin/../lib/gcc/arm-none-eabi/4.9.3/../../../../arm-none-eabi/lib/thumb\libc.a(lib_a-callocr.o)
                                                  d:/gcc-arm-none-eabi/bin/../lib/gcc/arm-none-eabi/4.9.3/../../../../arm-none-eabi/lib/thumb\libc.a(lib_a-mprec.o)
_close_r                                          Src/syscalls.o
_dtoa_r                                           d:/gcc-arm-none-eabi/bin/../lib/gcc/arm-none-eabi/4.9.3/../../../../arm-none-eabi/lib/thumb\libc.a(lib_a-dtoa.o)
                                                  d:/gcc-arm-none-eabi/bin/../lib/gcc/arm-none-eabi/4.9.3/../../../../arm-none-eabi/lib/thumb\libc.a(lib_a-svfprintf.o)
_ebss                                             STLibrary/src/stm32f10x_vector.o
_edata                                            STLibrary/src/stm32f10x_vector.o
_estack                                           STLibrary/src/stm32f10x_vector.o
_exit                                             d:/gcc-arm-none-eabi/bin/../lib/gcc/arm-none-eabi/4.9.3/../../../../arm-none-eabi/lib/thumb\libc.a(lib_a-exit.o)
_fini                                             d:/gcc-arm-none-eabi/bin/../lib/gcc/arm-none-eabi/4.9.3/thumb/crti.o
_free_r                                           d:/gcc-arm-none-eabi/bin/../lib/gcc/arm-none-eabi/4.9.3/../../../../arm-none-eabi/lib/thumb\libc.a(lib_a-freer.o)
                                                  d:/gcc-arm-none-eabi/bin/../lib/gcc/arm-none-eabi/4.9.3/../../../../arm-none-eabi/lib/thumb\libc.a(lib_a-reallocr.o)
                                                  d:/gcc-arm-none-eabi/bin/../lib/gcc/arm-none-eabi/4.9.3/../../../../arm-none-eabi/lib/thumb\libc.a(lib_a-svfiprintf.o)
                                                  d:/gcc-arm-none-eabi/bin/../lib/gcc/arm-none-eabi/4.9.3/../../../../arm-none-eabi/lib/thumb\libc.a(lib_a-mallocr.o)
                                                  d:/gcc-arm-none-eabi/bin/../lib/gcc/arm-none-eabi/4.9.3/../../../../arm-none-eabi/lib/thumb\libc.a(lib_a-malloc.o)
                                                  d:/gcc-arm-none-eabi/bin/../lib/gcc/arm-none-eabi/4.9.3/../../../../arm-none-eabi/lib/thumb\libc.a(lib_a-svfprintf.o)
_fstat_r                                          Src/syscalls.o
_global_atexit                                    d:/gcc-arm-none-eabi/bin/../lib/gcc/arm-none-eabi/4.9.3/../../../../arm-none-eabi/lib/thumb\libc.a(lib_a-__call_atexit.o)
_global_impure_ptr                                d:/gcc-arm-none-eabi/bin/../lib/gcc/arm-none-eabi/4.9.3/../../../../arm-none-eabi/lib/thumb\libc.a(lib_a-impure.o)
                                                  d:/gcc-arm-none-eabi/bin/../lib/gcc/arm-none-eabi/4.9.3/../../../../arm-none-eabi/lib/thumb\libc.a(lib_a-exit.o)
_impure_ptr                                       d:/gcc-arm-none-eabi/bin/../lib/gcc/arm-none-eabi/4.9.3/../../../../arm-none-eabi/lib/thumb\libc.a(lib_a-impure.o)
                                                  d:/gcc-arm-none-eabi/bin/../lib/gcc/arm-none-eabi/4.9.3/../../../../arm-none-eabi/lib/thumb\libc.a(lib_a-malloc.o)
                                                  d:/gcc-arm-none-eabi/bin/../lib/gcc/arm-none-eabi/4.9.3/../../../../arm-none-eabi/lib/thumb\libc.a(lib_a-locale.o)
                                                  d:/gcc-arm-none-eabi/bin/../lib/gcc/arm-none-eabi/4.9.3/../../../../arm-none-eabi/lib/thumb\libc.a(lib_a-sprintf.o)
_init                                             d:/gcc-arm-none-eabi/bin/../lib/gcc/arm-none-eabi/4.9.3/thumb/crti.o
                                                  d:/gcc-arm-none-eabi/bin/../lib/gcc/arm-none-eabi/4.9.3/../../../../arm-none-eabi/lib/thumb\libc.a(lib_a-init.o)
_isatty                                           Src/syscalls.o
_localeconv_r                                     d:/gcc-arm-none-eabi/bin/../lib/gcc/arm-none-eabi/4.9.3/../../../../arm-none-eabi/lib/thumb\libc.a(lib_a-locale.o)
                                                  d:/gcc-arm-none-eabi/bin/../lib/gcc/arm-none-eabi/4.9.3/../../../../arm-none-eabi/lib/thumb\libc.a(lib_a-svfiprintf.o)
                                                  d:/gcc-arm-none-eabi/bin/../lib/gcc/arm-none-eabi/4.9.3/../../../../arm-none-eabi/lib/thumb\libc.a(lib_a-svfprintf.o)
_lseek_r                                          Src/syscalls.o
_mainCRTStartup                                   d:/gcc-arm-none-eabi/bin/../lib/gcc/arm-none-eabi/4.9.3/../../../../arm-none-eabi/lib/thumb/crt0.o
_malloc_r                                         d:/gcc-arm-none-eabi/bin/../lib/gcc/arm-none-eabi/4.9.3/../../../../arm-none-eabi/lib/thumb\libc.a(lib_a-mallocr.o)
                                                  d:/gcc-arm-none-eabi/bin/../lib/gcc/arm-none-eabi/4.9.3/../../../../arm-none-eabi/lib/thumb\libc.a(lib_a-reallocr.o)
                                                  d:/gcc-arm-none-eabi/bin/../lib/gcc/arm-none-eabi/4.9.3/../../../../arm-none-eabi/lib/thumb\libc.a(lib_a-callocr.o)
                                                  d:/gcc-arm-none-eabi/bin/../lib/gcc/arm-none-eabi/4.9.3/../../../../arm-none-eabi/lib/thumb\libc.a(lib_a-svfiprintf.o)
                                                  d:/gcc-arm-none-eabi/bin/../lib/gcc/arm-none-eabi/4.9.3/../../../../arm-none-eabi/lib/thumb\libc.a(lib_a-malloc.o)
                                                  d:/gcc-arm-none-eabi/bin/../lib/gcc/arm-none-eabi/4.9.3/../../../../arm-none-eabi/lib/thumb\libc.a(lib_a-svfprintf.o)
_malloc_trim_r                                    d:/gcc-arm-none-eabi/bin/../lib/gcc/arm-none-eabi/4.9.3/../../../../arm-none-eabi/lib/thumb\libc.a(lib_a-freer.o)
_mprec_log10                                      d:/gcc-arm-none-eabi/bin/../lib/gcc/arm-none-eabi/4.9.3/../../../../arm-none-eabi/lib/thumb\libc.a(lib_a-mprec.o)
_read_r                                           Src/syscalls.o
_realloc_r                                        d:/gcc-arm-none-eabi/bin/../lib/gcc/arm-none-eabi/4.9.3/../../../../arm-none-eabi/lib/thumb\libc.a(lib_a-reallocr.o)
                                                  d:/gcc-arm-none-eabi/bin/../lib/gcc/arm-none-eabi/4.9.3/../../../../arm-none-eabi/lib/thumb\libc.a(lib_a-svfiprintf.o)
_sbrk_r                                           Src/syscalls.o
                                                  d:/gcc-arm-none-eabi/bin/../lib/gcc/arm-none-eabi/4.9.3/../../../../arm-none-eabi/lib/thumb\libc.a(lib_a-mallocr.o)
                                                  d:/gcc-arm-none-eabi/bin/../lib/gcc/arm-none-eabi/4.9.3/../../../../arm-none-eabi/lib/thumb\libc.a(lib_a-freer.o)
_sbss                                             STLibrary/src/stm32f10x_vector.o
_sdata                                            STLibrary/src/stm32f10x_vector.o
_setlocale_r                                      d:/gcc-arm-none-eabi/bin/../lib/gcc/arm-none-eabi/4.9.3/../../../../arm-none-eabi/lib/thumb\libc.a(lib_a-locale.o)
_sidata                                           STLibrary/src/stm32f10x_vector.o
_sprintf_r                                        d:/gcc-arm-none-eabi/bin/../lib/gcc/arm-none-eabi/4.9.3/../../../../arm-none-eabi/lib/thumb\libc.a(lib_a-sprintf.o)
_start                                            d:/gcc-arm-none-eabi/bin/../lib/gcc/arm-none-eabi/4.9.3/../../../../arm-none-eabi/lib/thumb/crt0.o
_svfiprintf_r                                     d:/gcc-arm-none-eabi/bin/../lib/gcc/arm-none-eabi/4.9.3/../../../../arm-none-eabi/lib/thumb\libc.a(lib_a-svfiprintf.o)
_svfprintf_r                                      d:/gcc-arm-none-eabi/bin/../lib/gcc/arm-none-eabi/4.9.3/../../../../arm-none-eabi/lib/thumb\libc.a(lib_a-svfprintf.o)
                                                  d:/gcc-arm-none-eabi/bin/../lib/gcc/arm-none-eabi/4.9.3/../../../../arm-none-eabi/lib/thumb\libc.a(lib_a-sprintf.o)
_write_r                                          Src/syscalls.o
abort                                             Src/syscalls.o
atexit                                            d:/gcc-arm-none-eabi/bin/../lib/gcc/arm-none-eabi/4.9.3/../../../../arm-none-eabi/lib/thumb/crt0.o
change_back                                       d:/gcc-arm-none-eabi/bin/../lib/gcc/arm-none-eabi/4.9.3/../../../../arm-none-eabi/lib/thumb/crt0.o
cursor_col                                        Src/Lcd3310.o
cursor_row                                        Src/Lcd3310.o
end                                               Src/syscalls.o
exit                                              d:/gcc-arm-none-eabi/bin/../lib/gcc/arm-none-eabi/4.9.3/../../../../arm-none-eabi/lib/thumb\libc.a(lib_a-exit.o)
                                                  d:/gcc-arm-none-eabi/bin/../lib/gcc/arm-none-eabi/4.9.3/../../../../arm-none-eabi/lib/thumb/crt0.o
free                                              d:/gcc-arm-none-eabi/bin/../lib/gcc/arm-none-eabi/4.9.3/../../../../arm-none-eabi/lib/thumb\libc.a(lib_a-malloc.o)
frexp                                             d:/gcc-arm-none-eabi/bin/../lib/gcc/arm-none-eabi/4.9.3/../../../../arm-none-eabi/lib/thumb\libc.a(lib_a-s_frexp.o)
                                                  d:/gcc-arm-none-eabi/bin/../lib/gcc/arm-none-eabi/4.9.3/../../../../arm-none-eabi/lib/thumb\libc.a(lib_a-svfprintf.o)
g_pfnVectors                                      STLibrary/src/stm32f10x_vector.o
hardware_init_hook                                d:/gcc-arm-none-eabi/bin/../lib/gcc/arm-none-eabi/4.9.3/../../../../arm-none-eabi/lib/thumb/crt0.o
lcd_buffer                                        Src/Lcd3310.o
localeconv                                        d:/gcc-arm-none-eabi/bin/../lib/gcc/arm-none-eabi/4.9.3/../../../../arm-none-eabi/lib/thumb\libc.a(lib_a-locale.o)
main                                              Src/main.o
                                                  STLibrary/src/stm32f10x_vector.o
                                                  d:/gcc-arm-none-eabi/bin/../lib/gcc/arm-none-eabi/4.9.3/../../../../arm-none-eabi/lib/thumb/crt0.o
malloc                                            d:/gcc-arm-none-eabi/bin/../lib/gcc/arm-none-eabi/4.9.3/../../../../arm-none-eabi/lib/thumb\libc.a(lib_a-malloc.o)
                                                  d:/gcc-arm-none-eabi/bin/../lib/gcc/arm-none-eabi/4.9.3/../../../../arm-none-eabi/lib/thumb\libc.a(lib_a-mprec.o)
                                                  d:/gcc-arm-none-eabi/bin/../lib/gcc/arm-none-eabi/4.9.3/../../../../arm-none-eabi/lib/thumb\libc.a(lib_a-dtoa.o)
memchr                                            d:/gcc-arm-none-eabi/bin/../lib/gcc/arm-none-eabi/4.9.3/../../../../arm-none-eabi/lib/thumb\libc.a(lib_a-memchr.o)
                                                  d:/gcc-arm-none-eabi/bin/../lib/gcc/arm-none-eabi/4.9.3/../../../../arm-none-eabi/lib/thumb\libc.a(lib_a-svfiprintf.o)
                                                  d:/gcc-arm-none-eabi/bin/../lib/gcc/arm-none-eabi/4.9.3/../../../../arm-none-eabi/lib/thumb\libc.a(lib_a-svfprintf.o)
memcmp                                            d:/gcc-arm-none-eabi/bin/../lib/gcc/arm-none-eabi/4.9.3/../../../../arm-none-eabi/lib/thumb\libc.a(lib_a-memcmp.o)
                                                  FreeRTOS_Source/Full/events.o
                                                  FreeRTOS_Source/tasks.o
memcpy                                            d:/gcc-arm-none-eabi/bin/../lib/gcc/arm-none-eabi/4.9.3/../../../../arm-none-eabi/lib/thumb\libc.a(lib_a-memcpy.o)
                                                  d:/gcc-arm-none-eabi/bin/../lib/gcc/arm-none-eabi/4.9.3/../../../../arm-none-eabi/lib/thumb\libc.a(lib_a-svfiprintf.o)
                                                  d:/gcc-arm-none-eabi/bin/../lib/gcc/arm-none-eabi/4.9.3/../../../../arm-none-eabi/lib/thumb\libc.a(lib_a-mprec.o)
                                                  d:/gcc-arm-none-eabi/bin/../lib/gcc/arm-none-eabi/4.9.3/../../../../arm-none-eabi/lib/thumb\libc.a(lib_a-dtoa.o)
                                                  FreeRTOS_Source/queue.o
memmove                                           d:/gcc-arm-none-eabi/bin/../lib/gcc/arm-none-eabi/4.9.3/../../../../arm-none-eabi/lib/thumb\libc.a(lib_a-memmove.o)
                                                  d:/gcc-arm-none-eabi/bin/../lib/gcc/arm-none-eabi/4.9.3/../../../../arm-none-eabi/lib/thumb\libc.a(lib_a-reallocr.o)
                                                  d:/gcc-arm-none-eabi/bin/../lib/gcc/arm-none-eabi/4.9.3/../../../../arm-none-eabi/lib/thumb\libc.a(lib_a-svfiprintf.o)
memset                                            d:/gcc-arm-none-eabi/bin/../lib/gcc/arm-none-eabi/4.9.3/../../../../arm-none-eabi/lib/thumb\libc.a(lib_a-memset.o)
                                                  d:/gcc-arm-none-eabi/bin/../lib/gcc/arm-none-eabi/4.9.3/../../../../arm-none-eabi/lib/thumb\libc.a(lib_a-callocr.o)
                                                  FreeRTOS_Source/tasks.o
                                                  d:/gcc-arm-none-eabi/bin/../lib/gcc/arm-none-eabi/4.9.3/../../../../arm-none-eabi/lib/thumb/crt0.o
pcPrintGetNextMessage                             FreeRTOS_Source/Full/print.o
pvPortMalloc                                      FreeRTOS_Source/portable/MemMang/heap_2.o
                                                  FreeRTOS_Source/Full/semtest.o
                                                  FreeRTOS_Source/Full/death.o
                                                  FreeRTOS_Source/Full/BlockQ.o
                                                  FreeRTOS_Source/tasks.o
                                                  FreeRTOS_Source/queue.o
                                                  FreeRTOS_Source/event_groups.o
pvTaskIncrementMutexHeldCount                     FreeRTOS_Source/tasks.o
                                                  FreeRTOS_Source/queue.o
pxCurrentTCB                                      FreeRTOS_Source/tasks.o
                                                  FreeRTOS_Source/portable/GCC/ARM_CM3/port.o
pxPortInitialiseStack                             FreeRTOS_Source/portable/GCC/ARM_CM3/port.o
                                                  FreeRTOS_Source/tasks.o
setlocale                                         d:/gcc-arm-none-eabi/bin/../lib/gcc/arm-none-eabi/4.9.3/../../../../arm-none-eabi/lib/thumb\libc.a(lib_a-locale.o)
software_init_hook                                d:/gcc-arm-none-eabi/bin/../lib/gcc/arm-none-eabi/4.9.3/../../../../arm-none-eabi/lib/thumb/crt0.o
sprintf                                           d:/gcc-arm-none-eabi/bin/../lib/gcc/arm-none-eabi/4.9.3/../../../../arm-none-eabi/lib/thumb\libc.a(lib_a-sprintf.o)
                                                  FreeRTOS_Source/tasks.o
str_tab                                           Src/StringsConv.o
strcmp                                            d:/gcc-arm-none-eabi/bin/../lib/gcc/arm-none-eabi/4.9.3/../../../../arm-none-eabi/lib/thumb\libc.a(lib_a-strcmp.o)
                                                  d:/gcc-arm-none-eabi/bin/../lib/gcc/arm-none-eabi/4.9.3/../../../../arm-none-eabi/lib/thumb\libc.a(lib_a-locale.o)
strcpy                                            d:/gcc-arm-none-eabi/bin/../lib/gcc/arm-none-eabi/4.9.3/../../../../arm-none-eabi/lib/thumb\libc.a(lib_a-strcpy.o)
                                                  FreeRTOS_Source/tasks.o
strlen                                            d:/gcc-arm-none-eabi/bin/../lib/gcc/arm-none-eabi/4.9.3/../../../../arm-none-eabi/lib/thumb\libc.a(lib_a-strlen.o)
                                                  d:/gcc-arm-none-eabi/bin/../lib/gcc/arm-none-eabi/4.9.3/../../../../arm-none-eabi/lib/thumb\libc.a(lib_a-svfiprintf.o)
                                                  d:/gcc-arm-none-eabi/bin/../lib/gcc/arm-none-eabi/4.9.3/../../../../arm-none-eabi/lib/thumb\libc.a(lib_a-svfprintf.o)
                                                  FreeRTOS_Source/tasks.o
strncpy                                           d:/gcc-arm-none-eabi/bin/../lib/gcc/arm-none-eabi/4.9.3/../../../../arm-none-eabi/lib/thumb\libc.a(lib_a-strncpy.o)
                                                  d:/gcc-arm-none-eabi/bin/../lib/gcc/arm-none-eabi/4.9.3/../../../../arm-none-eabi/lib/thumb\libc.a(lib_a-svfiprintf.o)
                                                  d:/gcc-arm-none-eabi/bin/../lib/gcc/arm-none-eabi/4.9.3/../../../../arm-none-eabi/lib/thumb\libc.a(lib_a-svfprintf.o)
ucQueueGetQueueType                               FreeRTOS_Source/queue.o
ulPortSetInterruptMask                            FreeRTOS_Source/portable/GCC/ARM_CM3/port.o
                                                  FreeRTOS_Source/tasks.o
                                                  FreeRTOS_Source/queue.o
                                                  FreeRTOS_Source/event_groups.o
ulRunTimeStatsClock                               Src/timertest.o
                                                  FreeRTOS_Source/tasks.o
ulTaskNotifyTake                                  FreeRTOS_Source/tasks.o
usMaxJitter                                       Src/timertest.o
uxEventGroupGetNumber                             FreeRTOS_Source/event_groups.o
uxListRemove                                      FreeRTOS_Source/list.o
                                                  FreeRTOS_Source/tasks.o
uxQueueGetQueueNumber                             FreeRTOS_Source/queue.o
uxQueueMessagesWaiting                            FreeRTOS_Source/queue.o
                                                  FreeRTOS_Source/Full/GenQTest.o
                                                  FreeRTOS_Source/Full/QPeek.o
                                                  FreeRTOS_Source/Full/PollQ.o
uxQueueMessagesWaitingFromISR                     FreeRTOS_Source/queue.o
uxQueueSpacesAvailable                            FreeRTOS_Source/queue.o
uxTaskGetNumberOfTasks                            FreeRTOS_Source/tasks.o
                                                  FreeRTOS_Source/Full/death.o
uxTaskGetSystemState                              FreeRTOS_Source/tasks.o
uxTaskGetTaskNumber                               FreeRTOS_Source/tasks.o
uxTaskPriorityGet                                 FreeRTOS_Source/tasks.o
                                                  FreeRTOS_Source/Full/GenQTest.o
                                                  FreeRTOS_Source/Full/dynamic.o
uxTaskPriorityGetFromISR                          FreeRTOS_Source/tasks.o
uxTaskResetEventItemValue                         FreeRTOS_Source/tasks.o
                                                  FreeRTOS_Source/event_groups.o
vAltStartComTestTasks                             FreeRTOS_Source/Full/comtest.o
vApplicationStackOverflowHook                     Src/main.o
                                                  FreeRTOS_Source/tasks.o
vApplicationTickHook                              Src/main.o
                                                  FreeRTOS_Source/tasks.o
vCreateSuicidalTasks                              FreeRTOS_Source/Full/death.o
vEventGroupClearBitsCallback                      FreeRTOS_Source/event_groups.o
vEventGroupDelete                                 FreeRTOS_Source/event_groups.o
vEventGroupSetBitsCallback                        FreeRTOS_Source/event_groups.o
vListInitialise                                   FreeRTOS_Source/list.o
                                                  FreeRTOS_Source/tasks.o
                                                  FreeRTOS_Source/queue.o
                                                  FreeRTOS_Source/event_groups.o
vListInitialiseItem                               FreeRTOS_Source/list.o
                                                  FreeRTOS_Source/tasks.o
vListInsert                                       FreeRTOS_Source/list.o
                                                  FreeRTOS_Source/tasks.o
vListInsertEnd                                    FreeRTOS_Source/list.o
                                                  FreeRTOS_Source/tasks.o
vParTestInitialise                                Src/ParTest.o
                                                  Src/main.o
vParTestSetLED                                    FreeRTOS_Source/Full/comtest.o
vParTestToggleLED                                 FreeRTOS_Source/Full/comtest.o
vPortClearInterruptMask                           FreeRTOS_Source/portable/GCC/ARM_CM3/port.o
                                                  FreeRTOS_Source/tasks.o
                                                  FreeRTOS_Source/queue.o
                                                  FreeRTOS_Source/event_groups.o
vPortEndScheduler                                 FreeRTOS_Source/portable/GCC/ARM_CM3/port.o
                                                  FreeRTOS_Source/tasks.o
vPortEnterCritical                                FreeRTOS_Source/portable/GCC/ARM_CM3/port.o
                                                  FreeRTOS_Source/Full/semtest.o
                                                  FreeRTOS_Source/Full/PollQ.o
                                                  FreeRTOS_Source/Full/integer.o
                                                  FreeRTOS_Source/Full/flash.o
                                                  FreeRTOS_Source/Full/dynamic.o
                                                  FreeRTOS_Source/tasks.o
                                                  FreeRTOS_Source/queue.o
                                                  FreeRTOS_Source/event_groups.o
vPortExitCritical                                 FreeRTOS_Source/portable/GCC/ARM_CM3/port.o
                                                  FreeRTOS_Source/Full/semtest.o
                                                  FreeRTOS_Source/Full/PollQ.o
                                                  FreeRTOS_Source/Full/integer.o
                                                  FreeRTOS_Source/Full/flash.o
                                                  FreeRTOS_Source/Full/dynamic.o
                                                  FreeRTOS_Source/tasks.o
                                                  FreeRTOS_Source/queue.o
                                                  FreeRTOS_Source/event_groups.o
vPortFree                                         FreeRTOS_Source/portable/MemMang/heap_2.o
                                                  FreeRTOS_Source/Full/death.o
                                                  FreeRTOS_Source/tasks.o
                                                  FreeRTOS_Source/queue.o
                                                  FreeRTOS_Source/event_groups.o
vPortInitialiseBlocks                             FreeRTOS_Source/portable/MemMang/heap_2.o
vPortSVCHandler                                   FreeRTOS_Source/portable/GCC/ARM_CM3/port.o
                                                  STLibrary/src/stm32f10x_vector.o
vPortSetupTimerInterrupt                          FreeRTOS_Source/portable/GCC/ARM_CM3/port.o
vPortYield                                        FreeRTOS_Source/portable/GCC/ARM_CM3/port.o
                                                  FreeRTOS_Source/Full/semtest.o
                                                  FreeRTOS_Source/tasks.o
                                                  FreeRTOS_Source/queue.o
                                                  FreeRTOS_Source/event_groups.o
vPrintDisplayMessage                              FreeRTOS_Source/Full/print.o
                                                  FreeRTOS_Source/Full/events.o
vPrintInitialise                                  FreeRTOS_Source/Full/print.o
vQueueDelete                                      FreeRTOS_Source/queue.o
vQueueSetQueueNumber                              FreeRTOS_Source/queue.o
vSetupHighFrequencyTimer                          Src/timertest.o
                                                  Src/main.o
vStartBlockingQueueTasks                          FreeRTOS_Source/Full/BlockQ.o
vStartDynamicPriorityTasks                        FreeRTOS_Source/Full/dynamic.o
vStartGenericQueueTasks                           FreeRTOS_Source/Full/GenQTest.o
vStartIntegerMathTasks                            FreeRTOS_Source/Full/integer.o
vStartLEDFlashTasks                               FreeRTOS_Source/Full/flash.o
vStartMultiEventTasks                             FreeRTOS_Source/Full/events.o
vStartPolledQueueTasks                            FreeRTOS_Source/Full/PollQ.o
vStartQueuePeekTasks                              FreeRTOS_Source/Full/QPeek.o
vStartRecursiveMutexTasks                         FreeRTOS_Source/Full/recmutex.o
vStartSemaphoreTasks                              FreeRTOS_Source/Full/semtest.o
vTaskDelay                                        FreeRTOS_Source/tasks.o
                                                  FreeRTOS_Source/Full/recmutex.o
                                                  FreeRTOS_Source/Full/QPeek.o
                                                  FreeRTOS_Source/Full/semtest.o
                                                  FreeRTOS_Source/Full/PollQ.o
                                                  FreeRTOS_Source/Full/dynamic.o
                                                  FreeRTOS_Source/Full/death.o
                                                  FreeRTOS_Source/Full/comtest.o
vTaskDelayUntil                                   FreeRTOS_Source/tasks.o
                                                  FreeRTOS_Source/Full/flash.o
                                                  Src/main.o
vTaskDelete                                       FreeRTOS_Source/tasks.o
                                                  FreeRTOS_Source/Full/death.o
vTaskEndScheduler                                 FreeRTOS_Source/tasks.o
vTaskGetRunTimeStats                              FreeRTOS_Source/tasks.o
vTaskList                                         FreeRTOS_Source/tasks.o
vTaskMissedYield                                  FreeRTOS_Source/tasks.o
                                                  FreeRTOS_Source/queue.o
vTaskNotifyGiveFromISR                            FreeRTOS_Source/tasks.o
vTaskPlaceOnEventList                             FreeRTOS_Source/tasks.o
                                                  FreeRTOS_Source/queue.o
vTaskPlaceOnUnorderedEventList                    FreeRTOS_Source/tasks.o
                                                  FreeRTOS_Source/event_groups.o
vTaskPriorityInherit                              FreeRTOS_Source/tasks.o
                                                  FreeRTOS_Source/queue.o
vTaskPrioritySet                                  FreeRTOS_Source/tasks.o
                                                  FreeRTOS_Source/Full/GenQTest.o
                                                  FreeRTOS_Source/Full/dynamic.o
vTaskResume                                       FreeRTOS_Source/tasks.o
                                                  FreeRTOS_Source/Full/recmutex.o
                                                  FreeRTOS_Source/Full/GenQTest.o
                                                  FreeRTOS_Source/Full/QPeek.o
                                                  FreeRTOS_Source/Full/events.o
                                                  FreeRTOS_Source/Full/dynamic.o
vTaskSetTaskNumber                                FreeRTOS_Source/tasks.o
vTaskSetTimeOutState                              FreeRTOS_Source/tasks.o
                                                  FreeRTOS_Source/queue.o
vTaskStartScheduler                               FreeRTOS_Source/tasks.o
                                                  Src/main.o
vTaskSuspend                                      FreeRTOS_Source/tasks.o
                                                  FreeRTOS_Source/Full/recmutex.o
                                                  FreeRTOS_Source/Full/GenQTest.o
                                                  FreeRTOS_Source/Full/QPeek.o
                                                  FreeRTOS_Source/Full/events.o
                                                  FreeRTOS_Source/Full/dynamic.o
vTaskSuspendAll                                   FreeRTOS_Source/tasks.o
                                                  FreeRTOS_Source/portable/MemMang/heap_2.o
                                                  FreeRTOS_Source/Full/events.o
                                                  FreeRTOS_Source/Full/dynamic.o
                                                  FreeRTOS_Source/queue.o
                                                  FreeRTOS_Source/event_groups.o
vTaskSwitchContext                                FreeRTOS_Source/tasks.o
                                                  FreeRTOS_Source/portable/GCC/ARM_CM3/port.o
xAreBlockingQueuesStillRunning                    FreeRTOS_Source/Full/BlockQ.o
                                                  Src/main.o
xAreComTestTasksStillRunning                      FreeRTOS_Source/Full/comtest.o
xAreDynamicPriorityTasksStillRunning              FreeRTOS_Source/Full/dynamic.o
xAreGenericQueueTasksStillRunning                 FreeRTOS_Source/Full/GenQTest.o
                                                  Src/main.o
xAreIntegerMathsTaskStillRunning                  FreeRTOS_Source/Full/integer.o
                                                  Src/main.o
xAreMultiEventTasksStillRunning                   FreeRTOS_Source/Full/events.o
xArePollingQueuesStillRunning                     FreeRTOS_Source/Full/PollQ.o
                                                  Src/main.o
xAreQueuePeekTasksStillRunning                    FreeRTOS_Source/Full/QPeek.o
                                                  Src/main.o
xAreRecursiveMutexTasksStillRunning               FreeRTOS_Source/Full/recmutex.o
                                                  Src/main.o
xAreSemaphoreTasksStillRunning                    FreeRTOS_Source/Full/semtest.o
                                                  Src/main.o
xCreatedTask                                      FreeRTOS_Source/Full/death.o
xEventGroupClearBits                              FreeRTOS_Source/event_groups.o
xEventGroupCreate                                 FreeRTOS_Source/event_groups.o
xEventGroupGetBitsFromISR                         FreeRTOS_Source/event_groups.o
xEventGroupSetBits                                FreeRTOS_Source/event_groups.o
xEventGroupSync                                   FreeRTOS_Source/event_groups.o
xEventGroupWaitBits                               FreeRTOS_Source/event_groups.o
xHighPriorityTask                                 FreeRTOS_Source/Full/QPeek.o
xHighestPriorityTask                              FreeRTOS_Source/Full/QPeek.o
xIsCreateTaskStillRunning                         FreeRTOS_Source/Full/death.o
xMediumPriorityTask                               FreeRTOS_Source/Full/QPeek.o
xPortGetFreeHeapSize                              FreeRTOS_Source/portable/MemMang/heap_2.o
xPortPendSVHandler                                FreeRTOS_Source/portable/GCC/ARM_CM3/port.o
                                                  STLibrary/src/stm32f10x_vector.o
xPortStartScheduler                               FreeRTOS_Source/portable/GCC/ARM_CM3/port.o
                                                  FreeRTOS_Source/tasks.o
xPortSysTickHandler                               FreeRTOS_Source/portable/GCC/ARM_CM3/port.o
                                                  STLibrary/src/stm32f10x_vector.o
xQueueCreateMutex                                 FreeRTOS_Source/queue.o
                                                  FreeRTOS_Source/Full/recmutex.o
                                                  FreeRTOS_Source/Full/GenQTest.o
xQueueGenericCreate                               FreeRTOS_Source/queue.o
                                                  FreeRTOS_Source/Full/GenQTest.o
                                                  FreeRTOS_Source/Full/QPeek.o
                                                  FreeRTOS_Source/Full/semtest.o
                                                  FreeRTOS_Source/Full/print.o
                                                  FreeRTOS_Source/Full/PollQ.o
                                                  FreeRTOS_Source/Full/events.o
                                                  FreeRTOS_Source/Full/dynamic.o
                                                  FreeRTOS_Source/Full/BlockQ.o
xQueueGenericReceive                              FreeRTOS_Source/queue.o
                                                  FreeRTOS_Source/Full/GenQTest.o
                                                  FreeRTOS_Source/Full/QPeek.o
                                                  FreeRTOS_Source/Full/semtest.o
                                                  FreeRTOS_Source/Full/print.o
                                                  FreeRTOS_Source/Full/PollQ.o
                                                  FreeRTOS_Source/Full/events.o
                                                  FreeRTOS_Source/Full/dynamic.o
                                                  FreeRTOS_Source/Full/BlockQ.o
xQueueGenericReset                                FreeRTOS_Source/queue.o
xQueueGenericSend                                 FreeRTOS_Source/queue.o
                                                  FreeRTOS_Source/Full/GenQTest.o
                                                  FreeRTOS_Source/Full/QPeek.o
                                                  FreeRTOS_Source/Full/semtest.o
                                                  FreeRTOS_Source/Full/PollQ.o
                                                  FreeRTOS_Source/Full/events.o
                                                  FreeRTOS_Source/Full/dynamic.o
                                                  FreeRTOS_Source/Full/BlockQ.o
xQueueGenericSendFromISR                          FreeRTOS_Source/queue.o
xQueueGiveFromISR                                 FreeRTOS_Source/queue.o
xQueueGiveMutexRecursive                          FreeRTOS_Source/queue.o
                                                  FreeRTOS_Source/Full/recmutex.o
xQueueIsQueueEmptyFromISR                         FreeRTOS_Source/queue.o
xQueueIsQueueFullFromISR                          FreeRTOS_Source/queue.o
xQueuePeekFromISR                                 FreeRTOS_Source/queue.o
xQueueReceiveFromISR                              FreeRTOS_Source/queue.o
xQueueTakeMutexRecursive                          FreeRTOS_Source/queue.o
                                                  FreeRTOS_Source/Full/recmutex.o
xSerialGetChar                                    FreeRTOS_Source/Full/comtest.o
xSerialPortInitMinimal                            FreeRTOS_Source/Full/comtest.o
xSerialPutChar                                    FreeRTOS_Source/Full/comtest.o
xSuspendedTestQueue                               FreeRTOS_Source/Full/dynamic.o
xTaskCheckForTimeOut                              FreeRTOS_Source/tasks.o
                                                  FreeRTOS_Source/queue.o
xTaskGenericCreate                                FreeRTOS_Source/tasks.o
                                                  FreeRTOS_Source/Full/recmutex.o
                                                  FreeRTOS_Source/Full/GenQTest.o
                                                  FreeRTOS_Source/Full/QPeek.o
                                                  FreeRTOS_Source/Full/semtest.o
                                                  FreeRTOS_Source/Full/PollQ.o
                                                  FreeRTOS_Source/Full/integer.o
                                                  FreeRTOS_Source/Full/flash.o
                                                  FreeRTOS_Source/Full/events.o
                                                  FreeRTOS_Source/Full/dynamic.o
                                                  FreeRTOS_Source/Full/death.o
                                                  FreeRTOS_Source/Full/comtest.o
                                                  FreeRTOS_Source/Full/BlockQ.o
                                                  Src/main.o
xTaskGenericNotify                                FreeRTOS_Source/tasks.o
xTaskGetCurrentTaskHandle                         FreeRTOS_Source/tasks.o
                                                  FreeRTOS_Source/queue.o
xTaskGetTickCount                                 FreeRTOS_Source/tasks.o
                                                  FreeRTOS_Source/Full/flash.o
                                                  FreeRTOS_Source/Full/comtest.o
                                                  Src/main.o
xTaskGetTickCountFromISR                          FreeRTOS_Source/tasks.o
xTaskIncrementTick                                FreeRTOS_Source/tasks.o
                                                  FreeRTOS_Source/portable/GCC/ARM_CM3/port.o
xTaskNotifyFromISR                                FreeRTOS_Source/tasks.o
xTaskNotifyWait                                   FreeRTOS_Source/tasks.o
xTaskPriorityDisinherit                           FreeRTOS_Source/tasks.o
                                                  FreeRTOS_Source/queue.o
xTaskRemoveFromEventList                          FreeRTOS_Source/tasks.o
                                                  FreeRTOS_Source/queue.o
xTaskRemoveFromUnorderedEventList                 FreeRTOS_Source/tasks.o
                                                  FreeRTOS_Source/event_groups.o
xTaskResumeAll                                    FreeRTOS_Source/tasks.o
                                                  FreeRTOS_Source/portable/MemMang/heap_2.o
                                                  FreeRTOS_Source/Full/events.o
                                                  FreeRTOS_Source/Full/dynamic.o
                                                  FreeRTOS_Source/queue.o
                                                  FreeRTOS_Source/event_groups.o
xTaskResumeFromISR                                FreeRTOS_Source/tasks.o
